
PulseOx2.elf:     file format elf32-littlearm

Sections:
Idx Name          Size      VMA       LMA       File off  Algn
  0 .isr_vector   000001c4  08000000  08000000  00001000  2**0
                  CONTENTS, ALLOC, LOAD, READONLY, DATA
  1 .text         00002bfc  080001d0  080001d0  000011d0  2**4
                  CONTENTS, ALLOC, LOAD, READONLY, CODE
  2 .rodata       0000005c  08002dcc  08002dcc  00003dcc  2**0
                  CONTENTS, ALLOC, LOAD, READONLY, DATA
  3 .ARM.extab    00000000  08002e28  08002e28  00004064  2**0
                  CONTENTS
  4 .ARM          00000008  08002e28  08002e28  00003e28  2**2
                  CONTENTS, ALLOC, LOAD, READONLY, DATA
  5 .preinit_array 00000000  08002e30  08002e30  00004064  2**0
                  CONTENTS, ALLOC, LOAD, DATA
  6 .init_array   00000004  08002e30  08002e30  00003e30  2**2
                  CONTENTS, ALLOC, LOAD, READONLY, DATA
  7 .fini_array   00000004  08002e34  08002e34  00003e34  2**2
                  CONTENTS, ALLOC, LOAD, READONLY, DATA
  8 .data         00000064  20000000  08002e38  00004000  2**2
                  CONTENTS, ALLOC, LOAD, DATA
  9 .bss          00000328  20000064  08002e9c  00004064  2**2
                  ALLOC
 10 ._user_heap_stack 00000604  2000038c  08002e9c  0000438c  2**0
                  ALLOC
 11 .ARM.attributes 00000030  00000000  00000000  00004064  2**0
                  CONTENTS, READONLY
 12 .comment      00000043  00000000  00000000  00004094  2**0
                  CONTENTS, READONLY
 13 .debug_frame  000005f4  00000000  00000000  000040d8  2**2
                  CONTENTS, READONLY, DEBUGGING, OCTETS

Disassembly of section .text:

080001d0 <__do_global_dtors_aux>:
 80001d0:	b510      	push	{r4, lr}
 80001d2:	4c05      	ldr	r4, [pc, #20]	@ (80001e8 <__do_global_dtors_aux+0x18>)
 80001d4:	7823      	ldrb	r3, [r4, #0]
 80001d6:	b933      	cbnz	r3, 80001e6 <__do_global_dtors_aux+0x16>
 80001d8:	4b04      	ldr	r3, [pc, #16]	@ (80001ec <__do_global_dtors_aux+0x1c>)
 80001da:	b113      	cbz	r3, 80001e2 <__do_global_dtors_aux+0x12>
 80001dc:	4804      	ldr	r0, [pc, #16]	@ (80001f0 <__do_global_dtors_aux+0x20>)
 80001de:	f3af 8000 	nop.w
 80001e2:	2301      	movs	r3, #1
 80001e4:	7023      	strb	r3, [r4, #0]
 80001e6:	bd10      	pop	{r4, pc}
 80001e8:	20000064 	.word	0x20000064
 80001ec:	00000000 	.word	0x00000000
 80001f0:	08002db4 	.word	0x08002db4

080001f4 <frame_dummy>:
 80001f4:	b508      	push	{r3, lr}
 80001f6:	4b03      	ldr	r3, [pc, #12]	@ (8000204 <frame_dummy+0x10>)
 80001f8:	b11b      	cbz	r3, 8000202 <frame_dummy+0xe>
 80001fa:	4903      	ldr	r1, [pc, #12]	@ (8000208 <frame_dummy+0x14>)
 80001fc:	4803      	ldr	r0, [pc, #12]	@ (800020c <frame_dummy+0x18>)
 80001fe:	f3af 8000 	nop.w
 8000202:	bd08      	pop	{r3, pc}
 8000204:	00000000 	.word	0x00000000
 8000208:	20000068 	.word	0x20000068
 800020c:	08002db4 	.word	0x08002db4

08000210 <strlen>:
 8000210:	4603      	mov	r3, r0
 8000212:	f813 2b01 	ldrb.w	r2, [r3], #1
 8000216:	2a00      	cmp	r2, #0
 8000218:	d1fb      	bne.n	8000212 <strlen+0x2>
 800021a:	1a18      	subs	r0, r3, r0
 800021c:	3801      	subs	r0, #1
 800021e:	4770      	bx	lr

08000220 <memchr>:
 8000220:	f001 01ff 	and.w	r1, r1, #255	@ 0xff
 8000224:	2a10      	cmp	r2, #16
 8000226:	db2b      	blt.n	8000280 <memchr+0x60>
 8000228:	f010 0f07 	tst.w	r0, #7
 800022c:	d008      	beq.n	8000240 <memchr+0x20>
 800022e:	f810 3b01 	ldrb.w	r3, [r0], #1
 8000232:	3a01      	subs	r2, #1
 8000234:	428b      	cmp	r3, r1
 8000236:	d02d      	beq.n	8000294 <memchr+0x74>
 8000238:	f010 0f07 	tst.w	r0, #7
 800023c:	b342      	cbz	r2, 8000290 <memchr+0x70>
 800023e:	d1f6      	bne.n	800022e <memchr+0xe>
 8000240:	b4f0      	push	{r4, r5, r6, r7}
 8000242:	ea41 2101 	orr.w	r1, r1, r1, lsl #8
 8000246:	ea41 4101 	orr.w	r1, r1, r1, lsl #16
 800024a:	f022 0407 	bic.w	r4, r2, #7
 800024e:	f07f 0700 	mvns.w	r7, #0
 8000252:	2300      	movs	r3, #0
 8000254:	e8f0 5602 	ldrd	r5, r6, [r0], #8
 8000258:	3c08      	subs	r4, #8
 800025a:	ea85 0501 	eor.w	r5, r5, r1
 800025e:	ea86 0601 	eor.w	r6, r6, r1
 8000262:	fa85 f547 	uadd8	r5, r5, r7
 8000266:	faa3 f587 	sel	r5, r3, r7
 800026a:	fa86 f647 	uadd8	r6, r6, r7
 800026e:	faa5 f687 	sel	r6, r5, r7
 8000272:	b98e      	cbnz	r6, 8000298 <memchr+0x78>
 8000274:	d1ee      	bne.n	8000254 <memchr+0x34>
 8000276:	bcf0      	pop	{r4, r5, r6, r7}
 8000278:	f001 01ff 	and.w	r1, r1, #255	@ 0xff
 800027c:	f002 0207 	and.w	r2, r2, #7
 8000280:	b132      	cbz	r2, 8000290 <memchr+0x70>
 8000282:	f810 3b01 	ldrb.w	r3, [r0], #1
 8000286:	3a01      	subs	r2, #1
 8000288:	ea83 0301 	eor.w	r3, r3, r1
 800028c:	b113      	cbz	r3, 8000294 <memchr+0x74>
 800028e:	d1f8      	bne.n	8000282 <memchr+0x62>
 8000290:	2000      	movs	r0, #0
 8000292:	4770      	bx	lr
 8000294:	3801      	subs	r0, #1
 8000296:	4770      	bx	lr
 8000298:	2d00      	cmp	r5, #0
 800029a:	bf06      	itte	eq
 800029c:	4635      	moveq	r5, r6
 800029e:	3803      	subeq	r0, #3
 80002a0:	3807      	subne	r0, #7
 80002a2:	f015 0f01 	tst.w	r5, #1
 80002a6:	d107      	bne.n	80002b8 <memchr+0x98>
 80002a8:	3001      	adds	r0, #1
 80002aa:	f415 7f80 	tst.w	r5, #256	@ 0x100
 80002ae:	bf02      	ittt	eq
 80002b0:	3001      	addeq	r0, #1
 80002b2:	f415 3fc0 	tsteq.w	r5, #98304	@ 0x18000
 80002b6:	3001      	addeq	r0, #1
 80002b8:	bcf0      	pop	{r4, r5, r6, r7}
 80002ba:	3801      	subs	r0, #1
 80002bc:	4770      	bx	lr
 80002be:	bf00      	nop

080002c0 <__aeabi_uldivmod>:
 80002c0:	b953      	cbnz	r3, 80002d8 <__aeabi_uldivmod+0x18>
 80002c2:	b94a      	cbnz	r2, 80002d8 <__aeabi_uldivmod+0x18>
 80002c4:	2900      	cmp	r1, #0
 80002c6:	bf08      	it	eq
 80002c8:	2800      	cmpeq	r0, #0
 80002ca:	bf1c      	itt	ne
 80002cc:	f04f 31ff 	movne.w	r1, #4294967295
 80002d0:	f04f 30ff 	movne.w	r0, #4294967295
 80002d4:	f000 b96a 	b.w	80005ac <__aeabi_idiv0>
 80002d8:	f1ad 0c08 	sub.w	ip, sp, #8
 80002dc:	e96d ce04 	strd	ip, lr, [sp, #-16]!
 80002e0:	f000 f806 	bl	80002f0 <__udivmoddi4>
 80002e4:	f8dd e004 	ldr.w	lr, [sp, #4]
 80002e8:	e9dd 2302 	ldrd	r2, r3, [sp, #8]
 80002ec:	b004      	add	sp, #16
 80002ee:	4770      	bx	lr

080002f0 <__udivmoddi4>:
 80002f0:	e92d 47f0 	stmdb	sp!, {r4, r5, r6, r7, r8, r9, sl, lr}
 80002f4:	9d08      	ldr	r5, [sp, #32]
 80002f6:	460c      	mov	r4, r1
 80002f8:	2b00      	cmp	r3, #0
 80002fa:	d14e      	bne.n	800039a <__udivmoddi4+0xaa>
 80002fc:	4694      	mov	ip, r2
 80002fe:	458c      	cmp	ip, r1
 8000300:	4686      	mov	lr, r0
 8000302:	fab2 f282 	clz	r2, r2
 8000306:	d962      	bls.n	80003ce <__udivmoddi4+0xde>
 8000308:	b14a      	cbz	r2, 800031e <__udivmoddi4+0x2e>
 800030a:	f1c2 0320 	rsb	r3, r2, #32
 800030e:	4091      	lsls	r1, r2
 8000310:	fa20 f303 	lsr.w	r3, r0, r3
 8000314:	fa0c fc02 	lsl.w	ip, ip, r2
 8000318:	4319      	orrs	r1, r3
 800031a:	fa00 fe02 	lsl.w	lr, r0, r2
 800031e:	ea4f 471c 	mov.w	r7, ip, lsr #16
 8000322:	fa1f f68c 	uxth.w	r6, ip
 8000326:	fbb1 f4f7 	udiv	r4, r1, r7
 800032a:	ea4f 431e 	mov.w	r3, lr, lsr #16
 800032e:	fb07 1114 	mls	r1, r7, r4, r1
 8000332:	ea43 4301 	orr.w	r3, r3, r1, lsl #16
 8000336:	fb04 f106 	mul.w	r1, r4, r6
 800033a:	4299      	cmp	r1, r3
 800033c:	d90a      	bls.n	8000354 <__udivmoddi4+0x64>
 800033e:	eb1c 0303 	adds.w	r3, ip, r3
 8000342:	f104 30ff 	add.w	r0, r4, #4294967295
 8000346:	f080 8112 	bcs.w	800056e <__udivmoddi4+0x27e>
 800034a:	4299      	cmp	r1, r3
 800034c:	f240 810f 	bls.w	800056e <__udivmoddi4+0x27e>
 8000350:	3c02      	subs	r4, #2
 8000352:	4463      	add	r3, ip
 8000354:	1a59      	subs	r1, r3, r1
 8000356:	fa1f f38e 	uxth.w	r3, lr
 800035a:	fbb1 f0f7 	udiv	r0, r1, r7
 800035e:	fb07 1110 	mls	r1, r7, r0, r1
 8000362:	ea43 4301 	orr.w	r3, r3, r1, lsl #16
 8000366:	fb00 f606 	mul.w	r6, r0, r6
 800036a:	429e      	cmp	r6, r3
 800036c:	d90a      	bls.n	8000384 <__udivmoddi4+0x94>
 800036e:	eb1c 0303 	adds.w	r3, ip, r3
 8000372:	f100 31ff 	add.w	r1, r0, #4294967295
 8000376:	f080 80fc 	bcs.w	8000572 <__udivmoddi4+0x282>
 800037a:	429e      	cmp	r6, r3
 800037c:	f240 80f9 	bls.w	8000572 <__udivmoddi4+0x282>
 8000380:	4463      	add	r3, ip
 8000382:	3802      	subs	r0, #2
 8000384:	1b9b      	subs	r3, r3, r6
 8000386:	ea40 4004 	orr.w	r0, r0, r4, lsl #16
 800038a:	2100      	movs	r1, #0
 800038c:	b11d      	cbz	r5, 8000396 <__udivmoddi4+0xa6>
 800038e:	40d3      	lsrs	r3, r2
 8000390:	2200      	movs	r2, #0
 8000392:	e9c5 3200 	strd	r3, r2, [r5]
 8000396:	e8bd 87f0 	ldmia.w	sp!, {r4, r5, r6, r7, r8, r9, sl, pc}
 800039a:	428b      	cmp	r3, r1
 800039c:	d905      	bls.n	80003aa <__udivmoddi4+0xba>
 800039e:	b10d      	cbz	r5, 80003a4 <__udivmoddi4+0xb4>
 80003a0:	e9c5 0100 	strd	r0, r1, [r5]
 80003a4:	2100      	movs	r1, #0
 80003a6:	4608      	mov	r0, r1
 80003a8:	e7f5      	b.n	8000396 <__udivmoddi4+0xa6>
 80003aa:	fab3 f183 	clz	r1, r3
 80003ae:	2900      	cmp	r1, #0
 80003b0:	d146      	bne.n	8000440 <__udivmoddi4+0x150>
 80003b2:	42a3      	cmp	r3, r4
 80003b4:	d302      	bcc.n	80003bc <__udivmoddi4+0xcc>
 80003b6:	4290      	cmp	r0, r2
 80003b8:	f0c0 80f0 	bcc.w	800059c <__udivmoddi4+0x2ac>
 80003bc:	1a86      	subs	r6, r0, r2
 80003be:	eb64 0303 	sbc.w	r3, r4, r3
 80003c2:	2001      	movs	r0, #1
 80003c4:	2d00      	cmp	r5, #0
 80003c6:	d0e6      	beq.n	8000396 <__udivmoddi4+0xa6>
 80003c8:	e9c5 6300 	strd	r6, r3, [r5]
 80003cc:	e7e3      	b.n	8000396 <__udivmoddi4+0xa6>
 80003ce:	2a00      	cmp	r2, #0
 80003d0:	f040 8090 	bne.w	80004f4 <__udivmoddi4+0x204>
 80003d4:	eba1 040c 	sub.w	r4, r1, ip
 80003d8:	ea4f 481c 	mov.w	r8, ip, lsr #16
 80003dc:	fa1f f78c 	uxth.w	r7, ip
 80003e0:	2101      	movs	r1, #1
 80003e2:	fbb4 f6f8 	udiv	r6, r4, r8
 80003e6:	ea4f 431e 	mov.w	r3, lr, lsr #16
 80003ea:	fb08 4416 	mls	r4, r8, r6, r4
 80003ee:	ea43 4304 	orr.w	r3, r3, r4, lsl #16
 80003f2:	fb07 f006 	mul.w	r0, r7, r6
 80003f6:	4298      	cmp	r0, r3
 80003f8:	d908      	bls.n	800040c <__udivmoddi4+0x11c>
 80003fa:	eb1c 0303 	adds.w	r3, ip, r3
 80003fe:	f106 34ff 	add.w	r4, r6, #4294967295
 8000402:	d202      	bcs.n	800040a <__udivmoddi4+0x11a>
 8000404:	4298      	cmp	r0, r3
 8000406:	f200 80cd 	bhi.w	80005a4 <__udivmoddi4+0x2b4>
 800040a:	4626      	mov	r6, r4
 800040c:	1a1c      	subs	r4, r3, r0
 800040e:	fa1f f38e 	uxth.w	r3, lr
 8000412:	fbb4 f0f8 	udiv	r0, r4, r8
 8000416:	fb08 4410 	mls	r4, r8, r0, r4
 800041a:	ea43 4304 	orr.w	r3, r3, r4, lsl #16
 800041e:	fb00 f707 	mul.w	r7, r0, r7
 8000422:	429f      	cmp	r7, r3
 8000424:	d908      	bls.n	8000438 <__udivmoddi4+0x148>
 8000426:	eb1c 0303 	adds.w	r3, ip, r3
 800042a:	f100 34ff 	add.w	r4, r0, #4294967295
 800042e:	d202      	bcs.n	8000436 <__udivmoddi4+0x146>
 8000430:	429f      	cmp	r7, r3
 8000432:	f200 80b0 	bhi.w	8000596 <__udivmoddi4+0x2a6>
 8000436:	4620      	mov	r0, r4
 8000438:	1bdb      	subs	r3, r3, r7
 800043a:	ea40 4006 	orr.w	r0, r0, r6, lsl #16
 800043e:	e7a5      	b.n	800038c <__udivmoddi4+0x9c>
 8000440:	f1c1 0620 	rsb	r6, r1, #32
 8000444:	408b      	lsls	r3, r1
 8000446:	fa22 f706 	lsr.w	r7, r2, r6
 800044a:	431f      	orrs	r7, r3
 800044c:	fa20 fc06 	lsr.w	ip, r0, r6
 8000450:	fa04 f301 	lsl.w	r3, r4, r1
 8000454:	ea43 030c 	orr.w	r3, r3, ip
 8000458:	40f4      	lsrs	r4, r6
 800045a:	fa00 f801 	lsl.w	r8, r0, r1
 800045e:	0c38      	lsrs	r0, r7, #16
 8000460:	ea4f 4913 	mov.w	r9, r3, lsr #16
 8000464:	fbb4 fef0 	udiv	lr, r4, r0
 8000468:	fa1f fc87 	uxth.w	ip, r7
 800046c:	fb00 441e 	mls	r4, r0, lr, r4
 8000470:	ea49 4404 	orr.w	r4, r9, r4, lsl #16
 8000474:	fb0e f90c 	mul.w	r9, lr, ip
 8000478:	45a1      	cmp	r9, r4
 800047a:	fa02 f201 	lsl.w	r2, r2, r1
 800047e:	d90a      	bls.n	8000496 <__udivmoddi4+0x1a6>
 8000480:	193c      	adds	r4, r7, r4
 8000482:	f10e 3aff 	add.w	sl, lr, #4294967295
 8000486:	f080 8084 	bcs.w	8000592 <__udivmoddi4+0x2a2>
 800048a:	45a1      	cmp	r9, r4
 800048c:	f240 8081 	bls.w	8000592 <__udivmoddi4+0x2a2>
 8000490:	f1ae 0e02 	sub.w	lr, lr, #2
 8000494:	443c      	add	r4, r7
 8000496:	eba4 0409 	sub.w	r4, r4, r9
 800049a:	fa1f f983 	uxth.w	r9, r3
 800049e:	fbb4 f3f0 	udiv	r3, r4, r0
 80004a2:	fb00 4413 	mls	r4, r0, r3, r4
 80004a6:	ea49 4404 	orr.w	r4, r9, r4, lsl #16
 80004aa:	fb03 fc0c 	mul.w	ip, r3, ip
 80004ae:	45a4      	cmp	ip, r4
 80004b0:	d907      	bls.n	80004c2 <__udivmoddi4+0x1d2>
 80004b2:	193c      	adds	r4, r7, r4
 80004b4:	f103 30ff 	add.w	r0, r3, #4294967295
 80004b8:	d267      	bcs.n	800058a <__udivmoddi4+0x29a>
 80004ba:	45a4      	cmp	ip, r4
 80004bc:	d965      	bls.n	800058a <__udivmoddi4+0x29a>
 80004be:	3b02      	subs	r3, #2
 80004c0:	443c      	add	r4, r7
 80004c2:	ea43 400e 	orr.w	r0, r3, lr, lsl #16
 80004c6:	fba0 9302 	umull	r9, r3, r0, r2
 80004ca:	eba4 040c 	sub.w	r4, r4, ip
 80004ce:	429c      	cmp	r4, r3
 80004d0:	46ce      	mov	lr, r9
 80004d2:	469c      	mov	ip, r3
 80004d4:	d351      	bcc.n	800057a <__udivmoddi4+0x28a>
 80004d6:	d04e      	beq.n	8000576 <__udivmoddi4+0x286>
 80004d8:	b155      	cbz	r5, 80004f0 <__udivmoddi4+0x200>
 80004da:	ebb8 030e 	subs.w	r3, r8, lr
 80004de:	eb64 040c 	sbc.w	r4, r4, ip
 80004e2:	fa04 f606 	lsl.w	r6, r4, r6
 80004e6:	40cb      	lsrs	r3, r1
 80004e8:	431e      	orrs	r6, r3
 80004ea:	40cc      	lsrs	r4, r1
 80004ec:	e9c5 6400 	strd	r6, r4, [r5]
 80004f0:	2100      	movs	r1, #0
 80004f2:	e750      	b.n	8000396 <__udivmoddi4+0xa6>
 80004f4:	f1c2 0320 	rsb	r3, r2, #32
 80004f8:	fa20 f103 	lsr.w	r1, r0, r3
 80004fc:	fa0c fc02 	lsl.w	ip, ip, r2
 8000500:	fa24 f303 	lsr.w	r3, r4, r3
 8000504:	4094      	lsls	r4, r2
 8000506:	430c      	orrs	r4, r1
 8000508:	ea4f 481c 	mov.w	r8, ip, lsr #16
 800050c:	fa00 fe02 	lsl.w	lr, r0, r2
 8000510:	fa1f f78c 	uxth.w	r7, ip
 8000514:	fbb3 f0f8 	udiv	r0, r3, r8
 8000518:	fb08 3110 	mls	r1, r8, r0, r3
 800051c:	0c23      	lsrs	r3, r4, #16
 800051e:	ea43 4301 	orr.w	r3, r3, r1, lsl #16
 8000522:	fb00 f107 	mul.w	r1, r0, r7
 8000526:	4299      	cmp	r1, r3
 8000528:	d908      	bls.n	800053c <__udivmoddi4+0x24c>
 800052a:	eb1c 0303 	adds.w	r3, ip, r3
 800052e:	f100 36ff 	add.w	r6, r0, #4294967295
 8000532:	d22c      	bcs.n	800058e <__udivmoddi4+0x29e>
 8000534:	4299      	cmp	r1, r3
 8000536:	d92a      	bls.n	800058e <__udivmoddi4+0x29e>
 8000538:	3802      	subs	r0, #2
 800053a:	4463      	add	r3, ip
 800053c:	1a5b      	subs	r3, r3, r1
 800053e:	b2a4      	uxth	r4, r4
 8000540:	fbb3 f1f8 	udiv	r1, r3, r8
 8000544:	fb08 3311 	mls	r3, r8, r1, r3
 8000548:	ea44 4403 	orr.w	r4, r4, r3, lsl #16
 800054c:	fb01 f307 	mul.w	r3, r1, r7
 8000550:	42a3      	cmp	r3, r4
 8000552:	d908      	bls.n	8000566 <__udivmoddi4+0x276>
 8000554:	eb1c 0404 	adds.w	r4, ip, r4
 8000558:	f101 36ff 	add.w	r6, r1, #4294967295
 800055c:	d213      	bcs.n	8000586 <__udivmoddi4+0x296>
 800055e:	42a3      	cmp	r3, r4
 8000560:	d911      	bls.n	8000586 <__udivmoddi4+0x296>
 8000562:	3902      	subs	r1, #2
 8000564:	4464      	add	r4, ip
 8000566:	1ae4      	subs	r4, r4, r3
 8000568:	ea41 4100 	orr.w	r1, r1, r0, lsl #16
 800056c:	e739      	b.n	80003e2 <__udivmoddi4+0xf2>
 800056e:	4604      	mov	r4, r0
 8000570:	e6f0      	b.n	8000354 <__udivmoddi4+0x64>
 8000572:	4608      	mov	r0, r1
 8000574:	e706      	b.n	8000384 <__udivmoddi4+0x94>
 8000576:	45c8      	cmp	r8, r9
 8000578:	d2ae      	bcs.n	80004d8 <__udivmoddi4+0x1e8>
 800057a:	ebb9 0e02 	subs.w	lr, r9, r2
 800057e:	eb63 0c07 	sbc.w	ip, r3, r7
 8000582:	3801      	subs	r0, #1
 8000584:	e7a8      	b.n	80004d8 <__udivmoddi4+0x1e8>
 8000586:	4631      	mov	r1, r6
 8000588:	e7ed      	b.n	8000566 <__udivmoddi4+0x276>
 800058a:	4603      	mov	r3, r0
 800058c:	e799      	b.n	80004c2 <__udivmoddi4+0x1d2>
 800058e:	4630      	mov	r0, r6
 8000590:	e7d4      	b.n	800053c <__udivmoddi4+0x24c>
 8000592:	46d6      	mov	lr, sl
 8000594:	e77f      	b.n	8000496 <__udivmoddi4+0x1a6>
 8000596:	4463      	add	r3, ip
 8000598:	3802      	subs	r0, #2
 800059a:	e74d      	b.n	8000438 <__udivmoddi4+0x148>
 800059c:	4606      	mov	r6, r0
 800059e:	4623      	mov	r3, r4
 80005a0:	4608      	mov	r0, r1
 80005a2:	e70f      	b.n	80003c4 <__udivmoddi4+0xd4>
 80005a4:	3e02      	subs	r6, #2
 80005a6:	4463      	add	r3, ip
 80005a8:	e730      	b.n	800040c <__udivmoddi4+0x11c>
 80005aa:	bf00      	nop

080005ac <__aeabi_idiv0>:
 80005ac:	4770      	bx	lr
 80005ae:	bf00      	nop

080005b0 <SystemClock_Config>:
 80005b0:	b530      	push	{r4, r5, lr}
 80005b2:	b095      	sub	sp, #84	@ 0x54
 80005b4:	2214      	movs	r2, #20
 80005b6:	2100      	movs	r1, #0
 80005b8:	a808      	add	r0, sp, #32
 80005ba:	f001 ff7b 	bl	80024b4 <memset>
 80005be:	2214      	movs	r2, #20
 80005c0:	2100      	movs	r1, #0
 80005c2:	a802      	add	r0, sp, #8
 80005c4:	f001 ff76 	bl	80024b4 <memset>
 80005c8:	4b20      	ldr	r3, [pc, #128]	@ (800064c <SystemClock_Config+0x9c>)
 80005ca:	2200      	movs	r2, #0
 80005cc:	9200      	str	r2, [sp, #0]
 80005ce:	6c19      	ldr	r1, [r3, #64]	@ 0x40
 80005d0:	f041 5180 	orr.w	r1, r1, #268435456	@ 0x10000000
 80005d4:	6419      	str	r1, [r3, #64]	@ 0x40
 80005d6:	6c1b      	ldr	r3, [r3, #64]	@ 0x40
 80005d8:	491d      	ldr	r1, [pc, #116]	@ (8000650 <SystemClock_Config+0xa0>)
 80005da:	f003 5380 	and.w	r3, r3, #268435456	@ 0x10000000
 80005de:	9300      	str	r3, [sp, #0]
 80005e0:	9b00      	ldr	r3, [sp, #0]
 80005e2:	9201      	str	r2, [sp, #4]
 80005e4:	680b      	ldr	r3, [r1, #0]
 80005e6:	f423 4340 	bic.w	r3, r3, #49152	@ 0xc000
 80005ea:	f443 4380 	orr.w	r3, r3, #16384	@ 0x4000
 80005ee:	600b      	str	r3, [r1, #0]
 80005f0:	680b      	ldr	r3, [r1, #0]
 80005f2:	f403 4340 	and.w	r3, r3, #49152	@ 0xc000
 80005f6:	9301      	str	r3, [sp, #4]
 80005f8:	9b01      	ldr	r3, [sp, #4]
 80005fa:	2501      	movs	r5, #1
 80005fc:	2310      	movs	r3, #16
 80005fe:	2402      	movs	r4, #2
 8000600:	e9cd 530a 	strd	r5, r3, [sp, #40]	@ 0x28
 8000604:	2108      	movs	r1, #8
 8000606:	2358      	movs	r3, #88	@ 0x58
 8000608:	a807      	add	r0, sp, #28
 800060a:	e9cd 420d 	strd	r4, r2, [sp, #52]	@ 0x34
 800060e:	e9cd 130f 	strd	r1, r3, [sp, #60]	@ 0x3c
 8000612:	e9cd 4411 	strd	r4, r4, [sp, #68]	@ 0x44
 8000616:	9407      	str	r4, [sp, #28]
 8000618:	9413      	str	r4, [sp, #76]	@ 0x4c
 800061a:	f001 f989 	bl	8001930 <HAL_RCC_OscConfig>
 800061e:	b108      	cbz	r0, 8000624 <SystemClock_Config+0x74>
 8000620:	b672      	cpsid	i
 8000622:	e7fe      	b.n	8000622 <SystemClock_Config+0x72>
 8000624:	230f      	movs	r3, #15
 8000626:	e9cd 3402 	strd	r3, r4, [sp, #8]
 800062a:	2280      	movs	r2, #128	@ 0x80
 800062c:	f44f 53a0 	mov.w	r3, #5120	@ 0x1400
 8000630:	e9cd 2304 	strd	r2, r3, [sp, #16]
 8000634:	4629      	mov	r1, r5
 8000636:	f44f 53e0 	mov.w	r3, #7168	@ 0x1c00
 800063a:	a802      	add	r0, sp, #8
 800063c:	9306      	str	r3, [sp, #24]
 800063e:	f001 f875 	bl	800172c <HAL_RCC_ClockConfig>
 8000642:	b108      	cbz	r0, 8000648 <SystemClock_Config+0x98>
 8000644:	b672      	cpsid	i
 8000646:	e7fe      	b.n	8000646 <SystemClock_Config+0x96>
 8000648:	b015      	add	sp, #84	@ 0x54
 800064a:	bd30      	pop	{r4, r5, pc}
 800064c:	40023800 	.word	0x40023800
 8000650:	40007000 	.word	0x40007000

08000654 <main>:
 8000654:	b500      	push	{lr}
 8000656:	b08d      	sub	sp, #52	@ 0x34
 8000658:	f000 fc9a 	bl	8000f90 <HAL_Init>
 800065c:	f7ff ffa8 	bl	80005b0 <SystemClock_Config>
 8000660:	2214      	movs	r2, #20
 8000662:	2100      	movs	r1, #0
 8000664:	a807      	add	r0, sp, #28
 8000666:	f001 ff25 	bl	80024b4 <memset>
 800066a:	2400      	movs	r4, #0
 800066c:	4b92      	ldr	r3, [pc, #584]	@ (80008b8 <main+0x264>)
 800066e:	9401      	str	r4, [sp, #4]
 8000670:	6b1a      	ldr	r2, [r3, #48]	@ 0x30
 8000672:	4892      	ldr	r0, [pc, #584]	@ (80008bc <main+0x268>)
 8000674:	4d92      	ldr	r5, [pc, #584]	@ (80008c0 <main+0x26c>)
 8000676:	f042 0204 	orr.w	r2, r2, #4
 800067a:	631a      	str	r2, [r3, #48]	@ 0x30
 800067c:	6b1a      	ldr	r2, [r3, #48]	@ 0x30
 800067e:	f002 0204 	and.w	r2, r2, #4
 8000682:	9201      	str	r2, [sp, #4]
 8000684:	9a01      	ldr	r2, [sp, #4]
 8000686:	9402      	str	r4, [sp, #8]
 8000688:	6b1a      	ldr	r2, [r3, #48]	@ 0x30
 800068a:	f042 0280 	orr.w	r2, r2, #128	@ 0x80
 800068e:	631a      	str	r2, [r3, #48]	@ 0x30
 8000690:	6b1a      	ldr	r2, [r3, #48]	@ 0x30
 8000692:	f002 0280 	and.w	r2, r2, #128	@ 0x80
 8000696:	9202      	str	r2, [sp, #8]
 8000698:	9a02      	ldr	r2, [sp, #8]
 800069a:	9403      	str	r4, [sp, #12]
 800069c:	6b1a      	ldr	r2, [r3, #48]	@ 0x30
 800069e:	f042 0201 	orr.w	r2, r2, #1
 80006a2:	631a      	str	r2, [r3, #48]	@ 0x30
 80006a4:	6b1a      	ldr	r2, [r3, #48]	@ 0x30
 80006a6:	f002 0201 	and.w	r2, r2, #1
 80006aa:	9203      	str	r2, [sp, #12]
 80006ac:	9a03      	ldr	r2, [sp, #12]
 80006ae:	9404      	str	r4, [sp, #16]
 80006b0:	6b1a      	ldr	r2, [r3, #48]	@ 0x30
 80006b2:	f042 0202 	orr.w	r2, r2, #2
 80006b6:	631a      	str	r2, [r3, #48]	@ 0x30
 80006b8:	6b1b      	ldr	r3, [r3, #48]	@ 0x30
 80006ba:	f003 0302 	and.w	r3, r3, #2
 80006be:	9304      	str	r3, [sp, #16]
 80006c0:	4622      	mov	r2, r4
 80006c2:	2103      	movs	r1, #3
 80006c4:	9b04      	ldr	r3, [sp, #16]
 80006c6:	f001 f823 	bl	8001710 <HAL_GPIO_WritePin>
 80006ca:	4622      	mov	r2, r4
 80006cc:	487d      	ldr	r0, [pc, #500]	@ (80008c4 <main+0x270>)
 80006ce:	2120      	movs	r1, #32
 80006d0:	f001 f81e 	bl	8001710 <HAL_GPIO_WritePin>
 80006d4:	f44f 1304 	mov.w	r3, #2162688	@ 0x210000
 80006d8:	f44f 5000 	mov.w	r0, #8192	@ 0x2000
 80006dc:	e9cd 0307 	strd	r0, r3, [sp, #28]
 80006e0:	a907      	add	r1, sp, #28
 80006e2:	4876      	ldr	r0, [pc, #472]	@ (80008bc <main+0x268>)
 80006e4:	9409      	str	r4, [sp, #36]	@ 0x24
 80006e6:	2601      	movs	r6, #1
 80006e8:	f000 ff40 	bl	800156c <HAL_GPIO_Init>
 80006ec:	2303      	movs	r3, #3
 80006ee:	4873      	ldr	r0, [pc, #460]	@ (80008bc <main+0x268>)
 80006f0:	a907      	add	r1, sp, #28
 80006f2:	e9cd 3607 	strd	r3, r6, [sp, #28]
 80006f6:	e9cd 4409 	strd	r4, r4, [sp, #36]	@ 0x24
 80006fa:	f000 ff37 	bl	800156c <HAL_GPIO_Init>
 80006fe:	2320      	movs	r3, #32
 8000700:	4870      	ldr	r0, [pc, #448]	@ (80008c4 <main+0x270>)
 8000702:	a907      	add	r1, sp, #28
 8000704:	e9cd 3607 	strd	r3, r6, [sp, #28]
 8000708:	e9cd 4409 	strd	r4, r4, [sp, #36]	@ 0x24
 800070c:	f000 ff2e 	bl	800156c <HAL_GPIO_Init>
 8000710:	486d      	ldr	r0, [pc, #436]	@ (80008c8 <main+0x274>)
 8000712:	f44f 33e1 	mov.w	r3, #115200	@ 0x1c200
 8000716:	e9c0 5300 	strd	r5, r3, [r0]
 800071a:	230c      	movs	r3, #12
 800071c:	e9c0 4402 	strd	r4, r4, [r0, #8]
 8000720:	e9c0 3405 	strd	r3, r4, [r0, #20]
 8000724:	6104      	str	r4, [r0, #16]
 8000726:	61c4      	str	r4, [r0, #28]
 8000728:	f001 fe12 	bl	8002350 <HAL_UART_Init>
 800072c:	4605      	mov	r5, r0
 800072e:	b108      	cbz	r0, 8000734 <main+0xe0>
 8000730:	b672      	cpsid	i
 8000732:	e7fe      	b.n	8000732 <main+0xde>
 8000734:	4601      	mov	r1, r0
 8000736:	2210      	movs	r2, #16
 8000738:	a807      	add	r0, sp, #28
 800073a:	f001 febb 	bl	80024b4 <memset>
 800073e:	4c63      	ldr	r4, [pc, #396]	@ (80008cc <main+0x278>)
 8000740:	4b63      	ldr	r3, [pc, #396]	@ (80008d0 <main+0x27c>)
 8000742:	60a5      	str	r5, [r4, #8]
 8000744:	e9c4 3500 	strd	r3, r5, [r4]
 8000748:	f04f 5180 	mov.w	r1, #268435456	@ 0x10000000
 800074c:	f04f 63c0 	mov.w	r3, #100663296	@ 0x6000000
 8000750:	4620      	mov	r0, r4
 8000752:	e9c4 310a 	strd	r3, r1, [r4, #40]	@ 0x28
 8000756:	6125      	str	r5, [r4, #16]
 8000758:	7625      	strb	r5, [r4, #24]
 800075a:	f884 5020 	strb.w	r5, [r4, #32]
 800075e:	60e5      	str	r5, [r4, #12]
 8000760:	61e6      	str	r6, [r4, #28]
 8000762:	f884 5030 	strb.w	r5, [r4, #48]	@ 0x30
 8000766:	6166      	str	r6, [r4, #20]
 8000768:	f000 fc3e 	bl	8000fe8 <HAL_ADC_Init>
 800076c:	b108      	cbz	r0, 8000772 <main+0x11e>
 800076e:	b672      	cpsid	i
 8000770:	e7fe      	b.n	8000770 <main+0x11c>
 8000772:	e9cd 0607 	strd	r0, r6, [sp, #28]
 8000776:	9009      	str	r0, [sp, #36]	@ 0x24
 8000778:	a907      	add	r1, sp, #28
 800077a:	4620      	mov	r0, r4
 800077c:	f000 fdf2 	bl	8001364 <HAL_ADC_ConfigChannel>
 8000780:	4604      	mov	r4, r0
 8000782:	b108      	cbz	r0, 8000788 <main+0x134>
 8000784:	b672      	cpsid	i
 8000786:	e7fe      	b.n	8000786 <main+0x132>
 8000788:	4601      	mov	r1, r0
 800078a:	2210      	movs	r2, #16
 800078c:	a807      	add	r0, sp, #28
 800078e:	f001 fe91 	bl	80024b4 <memset>
 8000792:	4d50      	ldr	r5, [pc, #320]	@ (80008d4 <main+0x280>)
 8000794:	4b50      	ldr	r3, [pc, #320]	@ (80008d8 <main+0x284>)
 8000796:	60ac      	str	r4, [r5, #8]
 8000798:	e9c5 3400 	strd	r3, r4, [r5]
 800079c:	4628      	mov	r0, r5
 800079e:	f64f 73ff 	movw	r3, #65535	@ 0xffff
 80007a2:	e9cd 4405 	strd	r4, r4, [sp, #20]
 80007a6:	e9c5 3403 	strd	r3, r4, [r5, #12]
 80007aa:	e9c5 4405 	strd	r4, r4, [r5, #20]
 80007ae:	f001 fc01 	bl	8001fb4 <HAL_TIM_Base_Init>
 80007b2:	b108      	cbz	r0, 80007b8 <main+0x164>
 80007b4:	b672      	cpsid	i
 80007b6:	e7fe      	b.n	80007b6 <main+0x162>
 80007b8:	f44f 5680 	mov.w	r6, #4096	@ 0x1000
 80007bc:	a907      	add	r1, sp, #28
 80007be:	4628      	mov	r0, r5
 80007c0:	9607      	str	r6, [sp, #28]
 80007c2:	f001 fc2d 	bl	8002020 <HAL_TIM_ConfigClockSource>
 80007c6:	b108      	cbz	r0, 80007cc <main+0x178>
 80007c8:	b672      	cpsid	i
 80007ca:	e7fe      	b.n	80007ca <main+0x176>
 80007cc:	e9cd 0005 	strd	r0, r0, [sp, #20]
 80007d0:	a905      	add	r1, sp, #20
 80007d2:	4628      	mov	r0, r5
 80007d4:	f001 fcbe 	bl	8002154 <HAL_TIMEx_MasterConfigSynchronization>
 80007d8:	4605      	mov	r5, r0
 80007da:	b108      	cbz	r0, 80007e0 <main+0x18c>
 80007dc:	b672      	cpsid	i
 80007de:	e7fe      	b.n	80007de <main+0x18a>
 80007e0:	4c3e      	ldr	r4, [pc, #248]	@ (80008dc <main+0x288>)
 80007e2:	4601      	mov	r1, r0
 80007e4:	2210      	movs	r2, #16
 80007e6:	a807      	add	r0, sp, #28
 80007e8:	f001 fe64 	bl	80024b4 <memset>
 80007ec:	f04f 4380 	mov.w	r3, #1073741824	@ 0x40000000
 80007f0:	e9c4 3500 	strd	r3, r5, [r4]
 80007f4:	f24a 73d7 	movw	r3, #42967	@ 0xa7d7
 80007f8:	e9c4 3503 	strd	r3, r5, [r4, #12]
 80007fc:	4620      	mov	r0, r4
 80007fe:	2380      	movs	r3, #128	@ 0x80
 8000800:	e9cd 5505 	strd	r5, r5, [sp, #20]
 8000804:	60a5      	str	r5, [r4, #8]
 8000806:	61a3      	str	r3, [r4, #24]
 8000808:	f001 fbd4 	bl	8001fb4 <HAL_TIM_Base_Init>
 800080c:	b108      	cbz	r0, 8000812 <main+0x1be>
 800080e:	b672      	cpsid	i
 8000810:	e7fe      	b.n	8000810 <main+0x1bc>
 8000812:	a907      	add	r1, sp, #28
 8000814:	4620      	mov	r0, r4
 8000816:	9607      	str	r6, [sp, #28]
 8000818:	f001 fc02 	bl	8002020 <HAL_TIM_ConfigClockSource>
 800081c:	b108      	cbz	r0, 8000822 <main+0x1ce>
 800081e:	b672      	cpsid	i
 8000820:	e7fe      	b.n	8000820 <main+0x1cc>
 8000822:	e9cd 0005 	strd	r0, r0, [sp, #20]
 8000826:	a905      	add	r1, sp, #20
 8000828:	4620      	mov	r0, r4
 800082a:	f001 fc93 	bl	8002154 <HAL_TIMEx_MasterConfigSynchronization>
 800082e:	4604      	mov	r4, r0
 8000830:	b108      	cbz	r0, 8000836 <main+0x1e2>
 8000832:	b672      	cpsid	i
 8000834:	e7fe      	b.n	8000834 <main+0x1e0>
 8000836:	2210      	movs	r2, #16
 8000838:	4601      	mov	r1, r0
 800083a:	a807      	add	r0, sp, #28
 800083c:	f001 fe3a 	bl	80024b4 <memset>
 8000840:	4827      	ldr	r0, [pc, #156]	@ (80008e0 <main+0x28c>)
 8000842:	4a28      	ldr	r2, [pc, #160]	@ (80008e4 <main+0x290>)
 8000844:	6084      	str	r4, [r0, #8]
 8000846:	2315      	movs	r3, #21
 8000848:	e9c0 2300 	strd	r2, r3, [r0]
 800084c:	f24f 4323 	movw	r3, #62499	@ 0xf423
 8000850:	e9cd 4405 	strd	r4, r4, [sp, #20]
 8000854:	e9c0 3403 	strd	r3, r4, [r0, #12]
 8000858:	6184      	str	r4, [r0, #24]
 800085a:	f001 fbab 	bl	8001fb4 <HAL_TIM_Base_Init>
 800085e:	b108      	cbz	r0, 8000864 <main+0x210>
 8000860:	b672      	cpsid	i
 8000862:	e7fe      	b.n	8000862 <main+0x20e>
 8000864:	f44f 5380 	mov.w	r3, #4096	@ 0x1000
 8000868:	481d      	ldr	r0, [pc, #116]	@ (80008e0 <main+0x28c>)
 800086a:	9307      	str	r3, [sp, #28]
 800086c:	a907      	add	r1, sp, #28
 800086e:	f001 fbd7 	bl	8002020 <HAL_TIM_ConfigClockSource>
 8000872:	b108      	cbz	r0, 8000878 <main+0x224>
 8000874:	b672      	cpsid	i
 8000876:	e7fe      	b.n	8000876 <main+0x222>
 8000878:	2320      	movs	r3, #32
 800087a:	e9cd 3005 	strd	r3, r0, [sp, #20]
 800087e:	a905      	add	r1, sp, #20
 8000880:	4817      	ldr	r0, [pc, #92]	@ (80008e0 <main+0x28c>)
 8000882:	f001 fc67 	bl	8002154 <HAL_TIMEx_MasterConfigSynchronization>
 8000886:	4604      	mov	r4, r0
 8000888:	b108      	cbz	r0, 800088e <main+0x23a>
 800088a:	b672      	cpsid	i
 800088c:	e7fe      	b.n	800088c <main+0x238>
 800088e:	4813      	ldr	r0, [pc, #76]	@ (80008dc <main+0x288>)
 8000890:	f001 fa1c 	bl	8001ccc <HAL_TIM_Base_Start>
 8000894:	480d      	ldr	r0, [pc, #52]	@ (80008cc <main+0x278>)
 8000896:	f000 fc4d 	bl	8001134 <HAL_ADC_Start_IT>
 800089a:	4808      	ldr	r0, [pc, #32]	@ (80008bc <main+0x268>)
 800089c:	2201      	movs	r2, #1
 800089e:	2102      	movs	r1, #2
 80008a0:	f000 ff36 	bl	8001710 <HAL_GPIO_WritePin>
 80008a4:	4805      	ldr	r0, [pc, #20]	@ (80008bc <main+0x268>)
 80008a6:	4622      	mov	r2, r4
 80008a8:	2101      	movs	r1, #1
 80008aa:	f000 ff31 	bl	8001710 <HAL_GPIO_WritePin>
 80008ae:	480c      	ldr	r0, [pc, #48]	@ (80008e0 <main+0x28c>)
 80008b0:	f001 fa42 	bl	8001d38 <HAL_TIM_Base_Start_IT>
 80008b4:	e7fe      	b.n	80008b4 <main+0x260>
 80008b6:	bf00      	nop
 80008b8:	40023800 	.word	0x40023800
 80008bc:	40020800 	.word	0x40020800
 80008c0:	40004400 	.word	0x40004400
 80008c4:	40020000 	.word	0x40020000
 80008c8:	200000d4 	.word	0x200000d4
 80008cc:	200001f4 	.word	0x200001f4
 80008d0:	40012000 	.word	0x40012000
 80008d4:	200001ac 	.word	0x200001ac
 80008d8:	40010000 	.word	0x40010000
 80008dc:	20000164 	.word	0x20000164
 80008e0:	2000011c 	.word	0x2000011c
 80008e4:	40000400 	.word	0x40000400

080008e8 <HAL_TIM_PeriodElapsedCallback>:
 80008e8:	b538      	push	{r3, r4, r5, lr}
 80008ea:	4b0f      	ldr	r3, [pc, #60]	@ (8000928 <HAL_TIM_PeriodElapsedCallback+0x40>)
 80008ec:	4283      	cmp	r3, r0
 80008ee:	d10e      	bne.n	800090e <HAL_TIM_PeriodElapsedCallback+0x26>
 80008f0:	4c0e      	ldr	r4, [pc, #56]	@ (800092c <HAL_TIM_PeriodElapsedCallback+0x44>)
 80008f2:	6825      	ldr	r5, [r4, #0]
 80008f4:	b165      	cbz	r5, 8000910 <HAL_TIM_PeriodElapsedCallback+0x28>
 80008f6:	480e      	ldr	r0, [pc, #56]	@ (8000930 <HAL_TIM_PeriodElapsedCallback+0x48>)
 80008f8:	2200      	movs	r2, #0
 80008fa:	2102      	movs	r1, #2
 80008fc:	f000 ff08 	bl	8001710 <HAL_GPIO_WritePin>
 8000900:	2201      	movs	r2, #1
 8000902:	480b      	ldr	r0, [pc, #44]	@ (8000930 <HAL_TIM_PeriodElapsedCallback+0x48>)
 8000904:	4611      	mov	r1, r2
 8000906:	f000 ff03 	bl	8001710 <HAL_GPIO_WritePin>
 800090a:	2300      	movs	r3, #0
 800090c:	6023      	str	r3, [r4, #0]
 800090e:	bd38      	pop	{r3, r4, r5, pc}
 8000910:	4807      	ldr	r0, [pc, #28]	@ (8000930 <HAL_TIM_PeriodElapsedCallback+0x48>)
 8000912:	2201      	movs	r2, #1
 8000914:	2102      	movs	r1, #2
 8000916:	f000 fefb 	bl	8001710 <HAL_GPIO_WritePin>
 800091a:	4805      	ldr	r0, [pc, #20]	@ (8000930 <HAL_TIM_PeriodElapsedCallback+0x48>)
 800091c:	462a      	mov	r2, r5
 800091e:	2101      	movs	r1, #1
 8000920:	f000 fef6 	bl	8001710 <HAL_GPIO_WritePin>
 8000924:	2301      	movs	r3, #1
 8000926:	e7f1      	b.n	800090c <HAL_TIM_PeriodElapsedCallback+0x24>
 8000928:	2000011c 	.word	0x2000011c
 800092c:	20000000 	.word	0x20000000
 8000930:	40020800 	.word	0x40020800

08000934 <updateMaxMin>:
 8000934:	edd0 7a00 	vldr	s15, [r0]
 8000938:	4b23      	ldr	r3, [pc, #140]	@ (80009c8 <updateMaxMin+0x94>)
 800093a:	eef8 7a67 	vcvt.f32.u32	s15, s15
 800093e:	b5f0      	push	{r4, r5, r6, r7, lr}
 8000940:	eef4 7ac0 	vcmpe.f32	s15, s0
 8000944:	eef1 fa10 	vmrs	APSR_nzcv, fpscr
 8000948:	681a      	ldr	r2, [r3, #0]
 800094a:	d404      	bmi.n	8000956 <updateMaxMin+0x22>
 800094c:	6843      	ldr	r3, [r0, #4]
 800094e:	f503 637a 	add.w	r3, r3, #4000	@ 0xfa0
 8000952:	4293      	cmp	r3, r2
 8000954:	d21f      	bcs.n	8000996 <updateMaxMin+0x62>
 8000956:	eebc 0ac0 	vcvt.u32.f32	s0, s0
 800095a:	6042      	str	r2, [r0, #4]
 800095c:	ed80 0a00 	vstr	s0, [r0]
 8000960:	4b1a      	ldr	r3, [pc, #104]	@ (80009cc <updateMaxMin+0x98>)
 8000962:	6807      	ldr	r7, [r0, #0]
 8000964:	f8d3 c000 	ldr.w	ip, [r3]
 8000968:	4b19      	ldr	r3, [pc, #100]	@ (80009d0 <updateMaxMin+0x9c>)
 800096a:	680c      	ldr	r4, [r1, #0]
 800096c:	681b      	ldr	r3, [r3, #0]
 800096e:	f10c 35ff 	add.w	r5, ip, #4294967295
 8000972:	1aed      	subs	r5, r5, r3
 8000974:	1b3e      	subs	r6, r7, r4
 8000976:	42ae      	cmp	r6, r5
 8000978:	d90c      	bls.n	8000994 <updateMaxMin+0x60>
 800097a:	2a0a      	cmp	r2, #10
 800097c:	d90a      	bls.n	8000994 <updateMaxMin+0x60>
 800097e:	6846      	ldr	r6, [r0, #4]
 8000980:	684a      	ldr	r2, [r1, #4]
 8000982:	4296      	cmp	r6, r2
 8000984:	d91b      	bls.n	80009be <updateMaxMin+0x8a>
 8000986:	3301      	adds	r3, #1
 8000988:	eba3 030c 	sub.w	r3, r3, ip
 800098c:	443b      	add	r3, r7
 800098e:	3e01      	subs	r6, #1
 8000990:	600b      	str	r3, [r1, #0]
 8000992:	604e      	str	r6, [r1, #4]
 8000994:	bdf0      	pop	{r4, r5, r6, r7, pc}
 8000996:	edd1 7a00 	vldr	s15, [r1]
 800099a:	eef8 7a67 	vcvt.f32.u32	s15, s15
 800099e:	eef4 7ac0 	vcmpe.f32	s15, s0
 80009a2:	eef1 fa10 	vmrs	APSR_nzcv, fpscr
 80009a6:	dc04      	bgt.n	80009b2 <updateMaxMin+0x7e>
 80009a8:	684b      	ldr	r3, [r1, #4]
 80009aa:	f503 637a 	add.w	r3, r3, #4000	@ 0xfa0
 80009ae:	4293      	cmp	r3, r2
 80009b0:	d2d6      	bcs.n	8000960 <updateMaxMin+0x2c>
 80009b2:	eebc 0ac0 	vcvt.u32.f32	s0, s0
 80009b6:	604a      	str	r2, [r1, #4]
 80009b8:	ed81 0a00 	vstr	s0, [r1]
 80009bc:	e7d0      	b.n	8000960 <updateMaxMin+0x2c>
 80009be:	442c      	add	r4, r5
 80009c0:	3a01      	subs	r2, #1
 80009c2:	6004      	str	r4, [r0, #0]
 80009c4:	6042      	str	r2, [r0, #4]
 80009c6:	e7e5      	b.n	8000994 <updateMaxMin+0x60>
 80009c8:	20000080 	.word	0x20000080
 80009cc:	2000009c 	.word	0x2000009c
 80009d0:	20000094 	.word	0x20000094

080009d4 <peakFinder>:
 80009d4:	4b26      	ldr	r3, [pc, #152]	@ (8000a70 <peakFinder+0x9c>)
 80009d6:	4927      	ldr	r1, [pc, #156]	@ (8000a74 <peakFinder+0xa0>)
 80009d8:	681b      	ldr	r3, [r3, #0]
 80009da:	6809      	ldr	r1, [r1, #0]
 80009dc:	e92d 41f0 	stmdb	sp!, {r4, r5, r6, r7, r8, lr}
 80009e0:	4c25      	ldr	r4, [pc, #148]	@ (8000a78 <peakFinder+0xa4>)
 80009e2:	4f26      	ldr	r7, [pc, #152]	@ (8000a7c <peakFinder+0xa8>)
 80009e4:	6822      	ldr	r2, [r4, #0]
 80009e6:	4d26      	ldr	r5, [pc, #152]	@ (8000a80 <peakFinder+0xac>)
 80009e8:	3b01      	subs	r3, #1
 80009ea:	1a5b      	subs	r3, r3, r1
 80009ec:	429a      	cmp	r2, r3
 80009ee:	46a0      	mov	r8, r4
 80009f0:	d92e      	bls.n	8000a50 <peakFinder+0x7c>
 80009f2:	ee07 2a90 	vmov	s15, r2
 80009f6:	ed97 7a00 	vldr	s14, [r7]
 80009fa:	eef8 7a67 	vcvt.f32.u32	s15, s15
 80009fe:	eef4 7ac7 	vcmpe.f32	s15, s14
 8000a02:	eef1 fa10 	vmrs	APSR_nzcv, fpscr
 8000a06:	db23      	blt.n	8000a50 <peakFinder+0x7c>
 8000a08:	682b      	ldr	r3, [r5, #0]
 8000a0a:	429a      	cmp	r2, r3
 8000a0c:	d320      	bcc.n	8000a50 <peakFinder+0x7c>
 8000a0e:	4e1d      	ldr	r6, [pc, #116]	@ (8000a84 <peakFinder+0xb0>)
 8000a10:	6863      	ldr	r3, [r4, #4]
 8000a12:	6832      	ldr	r2, [r6, #0]
 8000a14:	1a9b      	subs	r3, r3, r2
 8000a16:	f5b3 7ffa 	cmp.w	r3, #500	@ 0x1f4
 8000a1a:	d919      	bls.n	8000a50 <peakFinder+0x7c>
 8000a1c:	481a      	ldr	r0, [pc, #104]	@ (8000a88 <peakFinder+0xb4>)
 8000a1e:	2120      	movs	r1, #32
 8000a20:	f000 fe7b 	bl	800171a <HAL_GPIO_TogglePin>
 8000a24:	edd4 7a01 	vldr	s15, [r4, #4]
 8000a28:	eddf 6a18 	vldr	s13, [pc, #96]	@ 8000a8c <peakFinder+0xb8>
 8000a2c:	4b18      	ldr	r3, [pc, #96]	@ (8000a90 <peakFinder+0xbc>)
 8000a2e:	eeb8 7a67 	vcvt.f32.u32	s14, s15
 8000a32:	edd6 7a00 	vldr	s15, [r6]
 8000a36:	eef8 7a67 	vcvt.f32.u32	s15, s15
 8000a3a:	ee37 7a67 	vsub.f32	s14, s14, s15
 8000a3e:	eec6 7a87 	vdiv.f32	s15, s13, s14
 8000a42:	eefc 7ae7 	vcvt.u32.f32	s15, s15
 8000a46:	ee17 2a90 	vmov	r2, s15
 8000a4a:	801a      	strh	r2, [r3, #0]
 8000a4c:	6863      	ldr	r3, [r4, #4]
 8000a4e:	6033      	str	r3, [r6, #0]
 8000a50:	edd7 7a00 	vldr	s15, [r7]
 8000a54:	4b0f      	ldr	r3, [pc, #60]	@ (8000a94 <peakFinder+0xc0>)
 8000a56:	e898 0003 	ldmia.w	r8, {r0, r1}
 8000a5a:	eefc 7ae7 	vcvt.u32.f32	s15, s15
 8000a5e:	681b      	ldr	r3, [r3, #0]
 8000a60:	edc4 7a00 	vstr	s15, [r4]
 8000a64:	e885 0003 	stmia.w	r5, {r0, r1}
 8000a68:	6063      	str	r3, [r4, #4]
 8000a6a:	e8bd 81f0 	ldmia.w	sp!, {r4, r5, r6, r7, r8, pc}
 8000a6e:	bf00      	nop
 8000a70:	2000009c 	.word	0x2000009c
 8000a74:	20000094 	.word	0x20000094
 8000a78:	200000b0 	.word	0x200000b0
 8000a7c:	200000bc 	.word	0x200000bc
 8000a80:	200000a8 	.word	0x200000a8
 8000a84:	200000a4 	.word	0x200000a4
 8000a88:	40020000 	.word	0x40020000
 8000a8c:	476a6000 	.word	0x476a6000
 8000a90:	200000d0 	.word	0x200000d0
 8000a94:	20000080 	.word	0x20000080

08000a98 <ratioToBloodOx>:
 8000a98:	ed9f 7a0d 	vldr	s14, [pc, #52]	@ 8000ad0 <ratioToBloodOx+0x38>
 8000a9c:	eeb4 0ac7 	vcmpe.f32	s0, s14
 8000aa0:	eef1 fa10 	vmrs	APSR_nzcv, fpscr
 8000aa4:	eef0 7a40 	vmov.f32	s15, s0
 8000aa8:	db0d      	blt.n	8000ac6 <ratioToBloodOx+0x2e>
 8000aaa:	eeb7 7a00 	vmov.f32	s14, #112	@ 0x3f800000  1.0
 8000aae:	eeb4 0ac7 	vcmpe.f32	s0, s14
 8000ab2:	eef1 fa10 	vmrs	APSR_nzcv, fpscr
 8000ab6:	d806      	bhi.n	8000ac6 <ratioToBloodOx+0x2e>
 8000ab8:	ed9f 0a06 	vldr	s0, [pc, #24]	@ 8000ad4 <ratioToBloodOx+0x3c>
 8000abc:	eebb 7a09 	vmov.f32	s14, #185	@ 0xc1c80000 -25.0
 8000ac0:	eea7 0a87 	vfma.f32	s0, s15, s14
 8000ac4:	4770      	bx	lr
 8000ac6:	ed9f 7a04 	vldr	s14, [pc, #16]	@ 8000ad8 <ratioToBloodOx+0x40>
 8000aca:	ed9f 0a04 	vldr	s0, [pc, #16]	@ 8000adc <ratioToBloodOx+0x44>
 8000ace:	e7f7      	b.n	8000ac0 <ratioToBloodOx+0x28>
 8000ad0:	3ecccccd 	.word	0x3ecccccd
 8000ad4:	42c80000 	.word	0x42c80000
 8000ad8:	c202c4ea 	.word	0xc202c4ea
 8000adc:	42aa0000 	.word	0x42aa0000

08000ae0 <calculateBloodOx>:
 8000ae0:	b508      	push	{r3, lr}
 8000ae2:	4b0e      	ldr	r3, [pc, #56]	@ (8000b1c <calculateBloodOx+0x3c>)
 8000ae4:	edd3 7a00 	vldr	s15, [r3]
 8000ae8:	4b0d      	ldr	r3, [pc, #52]	@ (8000b20 <calculateBloodOx+0x40>)
 8000aea:	eef8 7a67 	vcvt.f32.u32	s15, s15
 8000aee:	ed93 7a00 	vldr	s14, [r3]
 8000af2:	4b0c      	ldr	r3, [pc, #48]	@ (8000b24 <calculateBloodOx+0x44>)
 8000af4:	ee87 0a27 	vdiv.f32	s0, s14, s15
 8000af8:	edd3 7a00 	vldr	s15, [r3]
 8000afc:	4b0a      	ldr	r3, [pc, #40]	@ (8000b28 <calculateBloodOx+0x48>)
 8000afe:	eef8 7a67 	vcvt.f32.u32	s15, s15
 8000b02:	edd3 6a00 	vldr	s13, [r3]
 8000b06:	4b09      	ldr	r3, [pc, #36]	@ (8000b2c <calculateBloodOx+0x4c>)
 8000b08:	ee86 7aa7 	vdiv.f32	s14, s13, s15
 8000b0c:	ee80 0a07 	vdiv.f32	s0, s0, s14
 8000b10:	f7ff ffc2 	bl	8000a98 <ratioToBloodOx>
 8000b14:	ed83 0a00 	vstr	s0, [r3]
 8000b18:	bd08      	pop	{r3, pc}
 8000b1a:	bf00      	nop
 8000b1c:	20000094 	.word	0x20000094
 8000b20:	200000bc 	.word	0x200000bc
 8000b24:	20000084 	.word	0x20000084
 8000b28:	200000b8 	.word	0x200000b8
 8000b2c:	200000cc 	.word	0x200000cc

08000b30 <transmitData>:
 8000b30:	b570      	push	{r4, r5, r6, lr}
 8000b32:	4b35      	ldr	r3, [pc, #212]	@ (8000c08 <transmitData+0xd8>)
 8000b34:	4a35      	ldr	r2, [pc, #212]	@ (8000c0c <transmitData+0xdc>)
 8000b36:	681b      	ldr	r3, [r3, #0]
 8000b38:	4c35      	ldr	r4, [pc, #212]	@ (8000c10 <transmitData+0xe0>)
 8000b3a:	4e36      	ldr	r6, [pc, #216]	@ (8000c14 <transmitData+0xe4>)
 8000b3c:	4d36      	ldr	r5, [pc, #216]	@ (8000c18 <transmitData+0xe8>)
 8000b3e:	b086      	sub	sp, #24
 8000b40:	210a      	movs	r1, #10
 8000b42:	4668      	mov	r0, sp
 8000b44:	f001 fc82 	bl	800244c <sniprintf>
 8000b48:	4668      	mov	r0, sp
 8000b4a:	f7ff fb61 	bl	8000210 <strlen>
 8000b4e:	4669      	mov	r1, sp
 8000b50:	b282      	uxth	r2, r0
 8000b52:	f04f 33ff 	mov.w	r3, #4294967295
 8000b56:	4620      	mov	r0, r4
 8000b58:	f001 fc29 	bl	80023ae <HAL_UART_Transmit>
 8000b5c:	4b2f      	ldr	r3, [pc, #188]	@ (8000c1c <transmitData+0xec>)
 8000b5e:	edd3 7a00 	vldr	s15, [r3]
 8000b62:	eefd 7ae7 	vcvt.s32.f32	s15, s15
 8000b66:	4632      	mov	r2, r6
 8000b68:	ee17 3a90 	vmov	r3, s15
 8000b6c:	210a      	movs	r1, #10
 8000b6e:	a803      	add	r0, sp, #12
 8000b70:	f001 fc6c 	bl	800244c <sniprintf>
 8000b74:	a803      	add	r0, sp, #12
 8000b76:	f7ff fb4b 	bl	8000210 <strlen>
 8000b7a:	a903      	add	r1, sp, #12
 8000b7c:	b282      	uxth	r2, r0
 8000b7e:	f04f 33ff 	mov.w	r3, #4294967295
 8000b82:	4620      	mov	r0, r4
 8000b84:	f001 fc13 	bl	80023ae <HAL_UART_Transmit>
 8000b88:	4b25      	ldr	r3, [pc, #148]	@ (8000c20 <transmitData+0xf0>)
 8000b8a:	edd3 7a00 	vldr	s15, [r3]
 8000b8e:	eefd 7ae7 	vcvt.s32.f32	s15, s15
 8000b92:	4632      	mov	r2, r6
 8000b94:	ee17 3a90 	vmov	r3, s15
 8000b98:	210a      	movs	r1, #10
 8000b9a:	a803      	add	r0, sp, #12
 8000b9c:	f001 fc56 	bl	800244c <sniprintf>
 8000ba0:	a803      	add	r0, sp, #12
 8000ba2:	f7ff fb35 	bl	8000210 <strlen>
 8000ba6:	a903      	add	r1, sp, #12
 8000ba8:	b282      	uxth	r2, r0
 8000baa:	f04f 33ff 	mov.w	r3, #4294967295
 8000bae:	4620      	mov	r0, r4
 8000bb0:	f001 fbfd 	bl	80023ae <HAL_UART_Transmit>
 8000bb4:	4b1b      	ldr	r3, [pc, #108]	@ (8000c24 <transmitData+0xf4>)
 8000bb6:	4632      	mov	r2, r6
 8000bb8:	881b      	ldrh	r3, [r3, #0]
 8000bba:	210a      	movs	r1, #10
 8000bbc:	4628      	mov	r0, r5
 8000bbe:	f001 fc45 	bl	800244c <sniprintf>
 8000bc2:	4628      	mov	r0, r5
 8000bc4:	f7ff fb24 	bl	8000210 <strlen>
 8000bc8:	4629      	mov	r1, r5
 8000bca:	b282      	uxth	r2, r0
 8000bcc:	f04f 33ff 	mov.w	r3, #4294967295
 8000bd0:	4620      	mov	r0, r4
 8000bd2:	f001 fbec 	bl	80023ae <HAL_UART_Transmit>
 8000bd6:	4b14      	ldr	r3, [pc, #80]	@ (8000c28 <transmitData+0xf8>)
 8000bd8:	4a14      	ldr	r2, [pc, #80]	@ (8000c2c <transmitData+0xfc>)
 8000bda:	edd3 7a00 	vldr	s15, [r3]
 8000bde:	eefd 7ae7 	vcvt.s32.f32	s15, s15
 8000be2:	210a      	movs	r1, #10
 8000be4:	ee17 3a90 	vmov	r3, s15
 8000be8:	a803      	add	r0, sp, #12
 8000bea:	f001 fc2f 	bl	800244c <sniprintf>
 8000bee:	a803      	add	r0, sp, #12
 8000bf0:	f7ff fb0e 	bl	8000210 <strlen>
 8000bf4:	f04f 33ff 	mov.w	r3, #4294967295
 8000bf8:	b282      	uxth	r2, r0
 8000bfa:	a903      	add	r1, sp, #12
 8000bfc:	4620      	mov	r0, r4
 8000bfe:	f001 fbd6 	bl	80023ae <HAL_UART_Transmit>
 8000c02:	b006      	add	sp, #24
 8000c04:	bd70      	pop	{r4, r5, r6, pc}
 8000c06:	bf00      	nop
 8000c08:	20000080 	.word	0x20000080
 8000c0c:	08002dcc 	.word	0x08002dcc
 8000c10:	200000d4 	.word	0x200000d4
 8000c14:	08002dd1 	.word	0x08002dd1
 8000c18:	200000c0 	.word	0x200000c0
 8000c1c:	200000bc 	.word	0x200000bc
 8000c20:	200000b8 	.word	0x200000b8
 8000c24:	200000d0 	.word	0x200000d0
 8000c28:	200000cc 	.word	0x200000cc
 8000c2c:	08002dd5 	.word	0x08002dd5

08000c30 <HAL_ADC_ConvCpltCallback>:
 8000c30:	b508      	push	{r3, lr}
 8000c32:	f000 f9d3 	bl	8000fdc <HAL_GetTick>
 8000c36:	4b1c      	ldr	r3, [pc, #112]	@ (8000ca8 <HAL_ADC_ConvCpltCallback+0x78>)
 8000c38:	6018      	str	r0, [r3, #0]
 8000c3a:	481c      	ldr	r0, [pc, #112]	@ (8000cac <HAL_ADC_ConvCpltCallback+0x7c>)
 8000c3c:	f000 fafe 	bl	800123c <HAL_ADC_GetValue>
 8000c40:	4b1b      	ldr	r3, [pc, #108]	@ (8000cb0 <HAL_ADC_ConvCpltCallback+0x80>)
 8000c42:	681a      	ldr	r2, [r3, #0]
 8000c44:	4b1b      	ldr	r3, [pc, #108]	@ (8000cb4 <HAL_ADC_ConvCpltCallback+0x84>)
 8000c46:	b280      	uxth	r0, r0
 8000c48:	ee07 0a90 	vmov	s15, r0
 8000c4c:	ed93 7a00 	vldr	s14, [r3]
 8000c50:	eeb7 0a00 	vmov.f32	s0, #112	@ 0x3f800000  1.0
 8000c54:	eef8 7a67 	vcvt.f32.u32	s15, s15
 8000c58:	ee30 0a47 	vsub.f32	s0, s0, s14
 8000c5c:	b182      	cbz	r2, 8000c80 <HAL_ADC_ConvCpltCallback+0x50>
 8000c5e:	4b16      	ldr	r3, [pc, #88]	@ (8000cb8 <HAL_ADC_ConvCpltCallback+0x88>)
 8000c60:	4916      	ldr	r1, [pc, #88]	@ (8000cbc <HAL_ADC_ConvCpltCallback+0x8c>)
 8000c62:	edd3 6a00 	vldr	s13, [r3]
 8000c66:	4816      	ldr	r0, [pc, #88]	@ (8000cc0 <HAL_ADC_ConvCpltCallback+0x90>)
 8000c68:	ee20 0a26 	vmul.f32	s0, s0, s13
 8000c6c:	eea7 0a87 	vfma.f32	s0, s15, s14
 8000c70:	ed83 0a00 	vstr	s0, [r3]
 8000c74:	f7ff fe5e 	bl	8000934 <updateMaxMin>
 8000c78:	e8bd 4008 	ldmia.w	sp!, {r3, lr}
 8000c7c:	f7ff beaa 	b.w	80009d4 <peakFinder>
 8000c80:	4b10      	ldr	r3, [pc, #64]	@ (8000cc4 <HAL_ADC_ConvCpltCallback+0x94>)
 8000c82:	4911      	ldr	r1, [pc, #68]	@ (8000cc8 <HAL_ADC_ConvCpltCallback+0x98>)
 8000c84:	edd3 6a00 	vldr	s13, [r3]
 8000c88:	4810      	ldr	r0, [pc, #64]	@ (8000ccc <HAL_ADC_ConvCpltCallback+0x9c>)
 8000c8a:	ee20 0a26 	vmul.f32	s0, s0, s13
 8000c8e:	eea7 0a87 	vfma.f32	s0, s15, s14
 8000c92:	ed83 0a00 	vstr	s0, [r3]
 8000c96:	f7ff fe4d 	bl	8000934 <updateMaxMin>
 8000c9a:	f7ff ff21 	bl	8000ae0 <calculateBloodOx>
 8000c9e:	e8bd 4008 	ldmia.w	sp!, {r3, lr}
 8000ca2:	f7ff bf45 	b.w	8000b30 <transmitData>
 8000ca6:	bf00      	nop
 8000ca8:	20000080 	.word	0x20000080
 8000cac:	200001f4 	.word	0x200001f4
 8000cb0:	20000000 	.word	0x20000000
 8000cb4:	20000004 	.word	0x20000004
 8000cb8:	200000bc 	.word	0x200000bc
 8000cbc:	20000094 	.word	0x20000094
 8000cc0:	2000009c 	.word	0x2000009c
 8000cc4:	200000b8 	.word	0x200000b8
 8000cc8:	20000084 	.word	0x20000084
 8000ccc:	2000008c 	.word	0x2000008c

08000cd0 <HAL_MspInit>:
 8000cd0:	b082      	sub	sp, #8
 8000cd2:	4b0d      	ldr	r3, [pc, #52]	@ (8000d08 <HAL_MspInit+0x38>)
 8000cd4:	2100      	movs	r1, #0
 8000cd6:	9100      	str	r1, [sp, #0]
 8000cd8:	6c5a      	ldr	r2, [r3, #68]	@ 0x44
 8000cda:	f442 4280 	orr.w	r2, r2, #16384	@ 0x4000
 8000cde:	645a      	str	r2, [r3, #68]	@ 0x44
 8000ce0:	6c5a      	ldr	r2, [r3, #68]	@ 0x44
 8000ce2:	f402 4280 	and.w	r2, r2, #16384	@ 0x4000
 8000ce6:	9200      	str	r2, [sp, #0]
 8000ce8:	9a00      	ldr	r2, [sp, #0]
 8000cea:	9101      	str	r1, [sp, #4]
 8000cec:	6c1a      	ldr	r2, [r3, #64]	@ 0x40
 8000cee:	f042 5280 	orr.w	r2, r2, #268435456	@ 0x10000000
 8000cf2:	641a      	str	r2, [r3, #64]	@ 0x40
 8000cf4:	6c1b      	ldr	r3, [r3, #64]	@ 0x40
 8000cf6:	f003 5380 	and.w	r3, r3, #268435456	@ 0x10000000
 8000cfa:	9301      	str	r3, [sp, #4]
 8000cfc:	9b01      	ldr	r3, [sp, #4]
 8000cfe:	2007      	movs	r0, #7
 8000d00:	b002      	add	sp, #8
 8000d02:	f000 bbcd 	b.w	80014a0 <HAL_NVIC_SetPriorityGrouping>
 8000d06:	bf00      	nop
 8000d08:	40023800 	.word	0x40023800

08000d0c <HAL_ADC_MspInit>:
 8000d0c:	b510      	push	{r4, lr}
 8000d0e:	4604      	mov	r4, r0
 8000d10:	b088      	sub	sp, #32
 8000d12:	2214      	movs	r2, #20
 8000d14:	2100      	movs	r1, #0
 8000d16:	a803      	add	r0, sp, #12
 8000d18:	f001 fbcc 	bl	80024b4 <memset>
 8000d1c:	6822      	ldr	r2, [r4, #0]
 8000d1e:	4b16      	ldr	r3, [pc, #88]	@ (8000d78 <HAL_ADC_MspInit+0x6c>)
 8000d20:	429a      	cmp	r2, r3
 8000d22:	d126      	bne.n	8000d72 <HAL_ADC_MspInit+0x66>
 8000d24:	f503 338c 	add.w	r3, r3, #71680	@ 0x11800
 8000d28:	2400      	movs	r4, #0
 8000d2a:	9401      	str	r4, [sp, #4]
 8000d2c:	6c5a      	ldr	r2, [r3, #68]	@ 0x44
 8000d2e:	4813      	ldr	r0, [pc, #76]	@ (8000d7c <HAL_ADC_MspInit+0x70>)
 8000d30:	f442 7280 	orr.w	r2, r2, #256	@ 0x100
 8000d34:	645a      	str	r2, [r3, #68]	@ 0x44
 8000d36:	6c5a      	ldr	r2, [r3, #68]	@ 0x44
 8000d38:	f402 7280 	and.w	r2, r2, #256	@ 0x100
 8000d3c:	9201      	str	r2, [sp, #4]
 8000d3e:	9a01      	ldr	r2, [sp, #4]
 8000d40:	9402      	str	r4, [sp, #8]
 8000d42:	6b1a      	ldr	r2, [r3, #48]	@ 0x30
 8000d44:	f042 0201 	orr.w	r2, r2, #1
 8000d48:	631a      	str	r2, [r3, #48]	@ 0x30
 8000d4a:	6b1b      	ldr	r3, [r3, #48]	@ 0x30
 8000d4c:	f003 0301 	and.w	r3, r3, #1
 8000d50:	9302      	str	r3, [sp, #8]
 8000d52:	2201      	movs	r2, #1
 8000d54:	9b02      	ldr	r3, [sp, #8]
 8000d56:	a903      	add	r1, sp, #12
 8000d58:	2303      	movs	r3, #3
 8000d5a:	e9cd 2303 	strd	r2, r3, [sp, #12]
 8000d5e:	f000 fc05 	bl	800156c <HAL_GPIO_Init>
 8000d62:	2012      	movs	r0, #18
 8000d64:	4622      	mov	r2, r4
 8000d66:	4621      	mov	r1, r4
 8000d68:	f000 fbac 	bl	80014c4 <HAL_NVIC_SetPriority>
 8000d6c:	2012      	movs	r0, #18
 8000d6e:	f000 fbdb 	bl	8001528 <HAL_NVIC_EnableIRQ>
 8000d72:	b008      	add	sp, #32
 8000d74:	bd10      	pop	{r4, pc}
 8000d76:	bf00      	nop
 8000d78:	40012000 	.word	0x40012000
 8000d7c:	40020000 	.word	0x40020000

08000d80 <HAL_TIM_Base_MspInit>:
 8000d80:	b51f      	push	{r0, r1, r2, r3, r4, lr}
 8000d82:	6803      	ldr	r3, [r0, #0]
 8000d84:	4a1d      	ldr	r2, [pc, #116]	@ (8000dfc <HAL_TIM_Base_MspInit+0x7c>)
 8000d86:	4293      	cmp	r3, r2
 8000d88:	d10e      	bne.n	8000da8 <HAL_TIM_Base_MspInit+0x28>
 8000d8a:	2300      	movs	r3, #0
 8000d8c:	9301      	str	r3, [sp, #4]
 8000d8e:	4b1c      	ldr	r3, [pc, #112]	@ (8000e00 <HAL_TIM_Base_MspInit+0x80>)
 8000d90:	6c5a      	ldr	r2, [r3, #68]	@ 0x44
 8000d92:	f042 0201 	orr.w	r2, r2, #1
 8000d96:	645a      	str	r2, [r3, #68]	@ 0x44
 8000d98:	6c5b      	ldr	r3, [r3, #68]	@ 0x44
 8000d9a:	f003 0301 	and.w	r3, r3, #1
 8000d9e:	9301      	str	r3, [sp, #4]
 8000da0:	9b01      	ldr	r3, [sp, #4]
 8000da2:	b005      	add	sp, #20
 8000da4:	f85d fb04 	ldr.w	pc, [sp], #4
 8000da8:	f1b3 4f80 	cmp.w	r3, #1073741824	@ 0x40000000
 8000dac:	d10c      	bne.n	8000dc8 <HAL_TIM_Base_MspInit+0x48>
 8000dae:	2300      	movs	r3, #0
 8000db0:	9302      	str	r3, [sp, #8]
 8000db2:	4b13      	ldr	r3, [pc, #76]	@ (8000e00 <HAL_TIM_Base_MspInit+0x80>)
 8000db4:	6c1a      	ldr	r2, [r3, #64]	@ 0x40
 8000db6:	f042 0201 	orr.w	r2, r2, #1
 8000dba:	641a      	str	r2, [r3, #64]	@ 0x40
 8000dbc:	6c1b      	ldr	r3, [r3, #64]	@ 0x40
 8000dbe:	f003 0301 	and.w	r3, r3, #1
 8000dc2:	9302      	str	r3, [sp, #8]
 8000dc4:	9b02      	ldr	r3, [sp, #8]
 8000dc6:	e7ec      	b.n	8000da2 <HAL_TIM_Base_MspInit+0x22>
 8000dc8:	4a0e      	ldr	r2, [pc, #56]	@ (8000e04 <HAL_TIM_Base_MspInit+0x84>)
 8000dca:	4293      	cmp	r3, r2
 8000dcc:	d1e9      	bne.n	8000da2 <HAL_TIM_Base_MspInit+0x22>
 8000dce:	2200      	movs	r2, #0
 8000dd0:	4b0b      	ldr	r3, [pc, #44]	@ (8000e00 <HAL_TIM_Base_MspInit+0x80>)
 8000dd2:	9203      	str	r2, [sp, #12]
 8000dd4:	6c19      	ldr	r1, [r3, #64]	@ 0x40
 8000dd6:	f041 0102 	orr.w	r1, r1, #2
 8000dda:	6419      	str	r1, [r3, #64]	@ 0x40
 8000ddc:	6c1b      	ldr	r3, [r3, #64]	@ 0x40
 8000dde:	f003 0302 	and.w	r3, r3, #2
 8000de2:	9303      	str	r3, [sp, #12]
 8000de4:	4611      	mov	r1, r2
 8000de6:	201d      	movs	r0, #29
 8000de8:	9b03      	ldr	r3, [sp, #12]
 8000dea:	f000 fb6b 	bl	80014c4 <HAL_NVIC_SetPriority>
 8000dee:	201d      	movs	r0, #29
 8000df0:	b005      	add	sp, #20
 8000df2:	f85d eb04 	ldr.w	lr, [sp], #4
 8000df6:	f000 bb97 	b.w	8001528 <HAL_NVIC_EnableIRQ>
 8000dfa:	bf00      	nop
 8000dfc:	40010000 	.word	0x40010000
 8000e00:	40023800 	.word	0x40023800
 8000e04:	40000400 	.word	0x40000400

08000e08 <HAL_UART_MspInit>:
 8000e08:	b510      	push	{r4, lr}
 8000e0a:	4604      	mov	r4, r0
 8000e0c:	b088      	sub	sp, #32
 8000e0e:	2214      	movs	r2, #20
 8000e10:	2100      	movs	r1, #0
 8000e12:	a803      	add	r0, sp, #12
 8000e14:	f001 fb4e 	bl	80024b4 <memset>
 8000e18:	6822      	ldr	r2, [r4, #0]
 8000e1a:	4b14      	ldr	r3, [pc, #80]	@ (8000e6c <HAL_UART_MspInit+0x64>)
 8000e1c:	429a      	cmp	r2, r3
 8000e1e:	d122      	bne.n	8000e66 <HAL_UART_MspInit+0x5e>
 8000e20:	f503 33fa 	add.w	r3, r3, #128000	@ 0x1f400
 8000e24:	2100      	movs	r1, #0
 8000e26:	9101      	str	r1, [sp, #4]
 8000e28:	6c1a      	ldr	r2, [r3, #64]	@ 0x40
 8000e2a:	4811      	ldr	r0, [pc, #68]	@ (8000e70 <HAL_UART_MspInit+0x68>)
 8000e2c:	f442 3200 	orr.w	r2, r2, #131072	@ 0x20000
 8000e30:	641a      	str	r2, [r3, #64]	@ 0x40
 8000e32:	6c1a      	ldr	r2, [r3, #64]	@ 0x40
 8000e34:	f402 3200 	and.w	r2, r2, #131072	@ 0x20000
 8000e38:	9201      	str	r2, [sp, #4]
 8000e3a:	9a01      	ldr	r2, [sp, #4]
 8000e3c:	9102      	str	r1, [sp, #8]
 8000e3e:	6b1a      	ldr	r2, [r3, #48]	@ 0x30
 8000e40:	f042 0201 	orr.w	r2, r2, #1
 8000e44:	631a      	str	r2, [r3, #48]	@ 0x30
 8000e46:	6b1b      	ldr	r3, [r3, #48]	@ 0x30
 8000e48:	f003 0301 	and.w	r3, r3, #1
 8000e4c:	9302      	str	r3, [sp, #8]
 8000e4e:	9b02      	ldr	r3, [sp, #8]
 8000e50:	220c      	movs	r2, #12
 8000e52:	2302      	movs	r3, #2
 8000e54:	2103      	movs	r1, #3
 8000e56:	e9cd 2303 	strd	r2, r3, [sp, #12]
 8000e5a:	2307      	movs	r3, #7
 8000e5c:	e9cd 1306 	strd	r1, r3, [sp, #24]
 8000e60:	a903      	add	r1, sp, #12
 8000e62:	f000 fb83 	bl	800156c <HAL_GPIO_Init>
 8000e66:	b008      	add	sp, #32
 8000e68:	bd10      	pop	{r4, pc}
 8000e6a:	bf00      	nop
 8000e6c:	40004400 	.word	0x40004400
 8000e70:	40020000 	.word	0x40020000

08000e74 <NMI_Handler>:
 8000e74:	e7fe      	b.n	8000e74 <NMI_Handler>

08000e76 <HardFault_Handler>:
 8000e76:	e7fe      	b.n	8000e76 <HardFault_Handler>

08000e78 <MemManage_Handler>:
 8000e78:	e7fe      	b.n	8000e78 <MemManage_Handler>

08000e7a <BusFault_Handler>:
 8000e7a:	e7fe      	b.n	8000e7a <BusFault_Handler>

08000e7c <UsageFault_Handler>:
 8000e7c:	e7fe      	b.n	8000e7c <UsageFault_Handler>

08000e7e <SVC_Handler>:
 8000e7e:	4770      	bx	lr

08000e80 <DebugMon_Handler>:
 8000e80:	4770      	bx	lr

08000e82 <PendSV_Handler>:
 8000e82:	4770      	bx	lr

08000e84 <SysTick_Handler>:
 8000e84:	f000 b89e 	b.w	8000fc4 <HAL_IncTick>

08000e88 <ADC_IRQHandler>:
 8000e88:	4801      	ldr	r0, [pc, #4]	@ (8000e90 <ADC_IRQHandler+0x8>)
 8000e8a:	f000 b9dc 	b.w	8001246 <HAL_ADC_IRQHandler>
 8000e8e:	bf00      	nop
 8000e90:	200001f4 	.word	0x200001f4

08000e94 <TIM3_IRQHandler>:
 8000e94:	4801      	ldr	r0, [pc, #4]	@ (8000e9c <TIM3_IRQHandler+0x8>)
 8000e96:	f000 bf8d 	b.w	8001db4 <HAL_TIM_IRQHandler>
 8000e9a:	bf00      	nop
 8000e9c:	2000011c 	.word	0x2000011c

08000ea0 <_sbrk>:
 8000ea0:	4a0b      	ldr	r2, [pc, #44]	@ (8000ed0 <_sbrk+0x30>)
 8000ea2:	6811      	ldr	r1, [r2, #0]
 8000ea4:	b510      	push	{r4, lr}
 8000ea6:	4603      	mov	r3, r0
 8000ea8:	b909      	cbnz	r1, 8000eae <_sbrk+0xe>
 8000eaa:	490a      	ldr	r1, [pc, #40]	@ (8000ed4 <_sbrk+0x34>)
 8000eac:	6011      	str	r1, [r2, #0]
 8000eae:	6810      	ldr	r0, [r2, #0]
 8000eb0:	4909      	ldr	r1, [pc, #36]	@ (8000ed8 <_sbrk+0x38>)
 8000eb2:	4c0a      	ldr	r4, [pc, #40]	@ (8000edc <_sbrk+0x3c>)
 8000eb4:	4403      	add	r3, r0
 8000eb6:	1b09      	subs	r1, r1, r4
 8000eb8:	428b      	cmp	r3, r1
 8000eba:	d906      	bls.n	8000eca <_sbrk+0x2a>
 8000ebc:	f001 fb02 	bl	80024c4 <__errno>
 8000ec0:	230c      	movs	r3, #12
 8000ec2:	6003      	str	r3, [r0, #0]
 8000ec4:	f04f 30ff 	mov.w	r0, #4294967295
 8000ec8:	bd10      	pop	{r4, pc}
 8000eca:	6013      	str	r3, [r2, #0]
 8000ecc:	e7fc      	b.n	8000ec8 <_sbrk+0x28>
 8000ece:	bf00      	nop
 8000ed0:	2000023c 	.word	0x2000023c
 8000ed4:	20000390 	.word	0x20000390
 8000ed8:	20020000 	.word	0x20020000
 8000edc:	00000400 	.word	0x00000400

08000ee0 <SystemInit>:
 8000ee0:	4a03      	ldr	r2, [pc, #12]	@ (8000ef0 <SystemInit+0x10>)
 8000ee2:	f8d2 3088 	ldr.w	r3, [r2, #136]	@ 0x88
 8000ee6:	f443 0370 	orr.w	r3, r3, #15728640	@ 0xf00000
 8000eea:	f8c2 3088 	str.w	r3, [r2, #136]	@ 0x88
 8000eee:	4770      	bx	lr
 8000ef0:	e000ed00 	.word	0xe000ed00

08000ef4 <Reset_Handler>:
 8000ef4:	f8df d034 	ldr.w	sp, [pc, #52]	@ 8000f2c <LoopFillZerobss+0xe>
 8000ef8:	f7ff fff2 	bl	8000ee0 <SystemInit>
 8000efc:	480c      	ldr	r0, [pc, #48]	@ (8000f30 <LoopFillZerobss+0x12>)
 8000efe:	490d      	ldr	r1, [pc, #52]	@ (8000f34 <LoopFillZerobss+0x16>)
 8000f00:	4a0d      	ldr	r2, [pc, #52]	@ (8000f38 <LoopFillZerobss+0x1a>)
 8000f02:	2300      	movs	r3, #0
 8000f04:	e002      	b.n	8000f0c <LoopCopyDataInit>

08000f06 <CopyDataInit>:
 8000f06:	58d4      	ldr	r4, [r2, r3]
 8000f08:	50c4      	str	r4, [r0, r3]
 8000f0a:	3304      	adds	r3, #4

08000f0c <LoopCopyDataInit>:
 8000f0c:	18c4      	adds	r4, r0, r3
 8000f0e:	428c      	cmp	r4, r1
 8000f10:	d3f9      	bcc.n	8000f06 <CopyDataInit>
 8000f12:	4a0a      	ldr	r2, [pc, #40]	@ (8000f3c <LoopFillZerobss+0x1e>)
 8000f14:	4c0a      	ldr	r4, [pc, #40]	@ (8000f40 <LoopFillZerobss+0x22>)
 8000f16:	2300      	movs	r3, #0
 8000f18:	e001      	b.n	8000f1e <LoopFillZerobss>

08000f1a <FillZerobss>:
 8000f1a:	6013      	str	r3, [r2, #0]
 8000f1c:	3204      	adds	r2, #4

08000f1e <LoopFillZerobss>:
 8000f1e:	42a2      	cmp	r2, r4
 8000f20:	d3fb      	bcc.n	8000f1a <FillZerobss>
 8000f22:	f001 fad5 	bl	80024d0 <__libc_init_array>
 8000f26:	f7ff fb95 	bl	8000654 <main>
 8000f2a:	4770      	bx	lr
 8000f2c:	20020000 	.word	0x20020000
 8000f30:	20000000 	.word	0x20000000
 8000f34:	20000064 	.word	0x20000064
 8000f38:	08002e38 	.word	0x08002e38
 8000f3c:	20000064 	.word	0x20000064
 8000f40:	2000038c 	.word	0x2000038c

08000f44 <CAN1_RX0_IRQHandler>:
 8000f44:	e7fe      	b.n	8000f44 <CAN1_RX0_IRQHandler>
	...

08000f48 <HAL_InitTick>:
 8000f48:	b538      	push	{r3, r4, r5, lr}
 8000f4a:	4b0e      	ldr	r3, [pc, #56]	@ (8000f84 <HAL_InitTick+0x3c>)
 8000f4c:	781a      	ldrb	r2, [r3, #0]
 8000f4e:	f44f 737a 	mov.w	r3, #1000	@ 0x3e8
 8000f52:	fbb3 f3f2 	udiv	r3, r3, r2
 8000f56:	4a0c      	ldr	r2, [pc, #48]	@ (8000f88 <HAL_InitTick+0x40>)
 8000f58:	4605      	mov	r5, r0
 8000f5a:	6810      	ldr	r0, [r2, #0]
 8000f5c:	fbb0 f0f3 	udiv	r0, r0, r3
 8000f60:	f000 faf0 	bl	8001544 <HAL_SYSTICK_Config>
 8000f64:	4604      	mov	r4, r0
 8000f66:	b958      	cbnz	r0, 8000f80 <HAL_InitTick+0x38>
 8000f68:	2d0f      	cmp	r5, #15
 8000f6a:	d809      	bhi.n	8000f80 <HAL_InitTick+0x38>
 8000f6c:	4602      	mov	r2, r0
 8000f6e:	4629      	mov	r1, r5
 8000f70:	f04f 30ff 	mov.w	r0, #4294967295
 8000f74:	f000 faa6 	bl	80014c4 <HAL_NVIC_SetPriority>
 8000f78:	4b04      	ldr	r3, [pc, #16]	@ (8000f8c <HAL_InitTick+0x44>)
 8000f7a:	4620      	mov	r0, r4
 8000f7c:	601d      	str	r5, [r3, #0]
 8000f7e:	bd38      	pop	{r3, r4, r5, pc}
 8000f80:	2001      	movs	r0, #1
 8000f82:	e7fc      	b.n	8000f7e <HAL_InitTick+0x36>
 8000f84:	2000000c 	.word	0x2000000c
 8000f88:	20000008 	.word	0x20000008
 8000f8c:	20000010 	.word	0x20000010

08000f90 <HAL_Init>:
 8000f90:	b508      	push	{r3, lr}
 8000f92:	4b0b      	ldr	r3, [pc, #44]	@ (8000fc0 <HAL_Init+0x30>)
 8000f94:	681a      	ldr	r2, [r3, #0]
 8000f96:	f442 7200 	orr.w	r2, r2, #512	@ 0x200
 8000f9a:	601a      	str	r2, [r3, #0]
 8000f9c:	681a      	ldr	r2, [r3, #0]
 8000f9e:	f442 6280 	orr.w	r2, r2, #1024	@ 0x400
 8000fa2:	601a      	str	r2, [r3, #0]
 8000fa4:	681a      	ldr	r2, [r3, #0]
 8000fa6:	f442 7280 	orr.w	r2, r2, #256	@ 0x100
 8000faa:	601a      	str	r2, [r3, #0]
 8000fac:	2003      	movs	r0, #3
 8000fae:	f000 fa77 	bl	80014a0 <HAL_NVIC_SetPriorityGrouping>
 8000fb2:	2000      	movs	r0, #0
 8000fb4:	f7ff ffc8 	bl	8000f48 <HAL_InitTick>
 8000fb8:	f7ff fe8a 	bl	8000cd0 <HAL_MspInit>
 8000fbc:	2000      	movs	r0, #0
 8000fbe:	bd08      	pop	{r3, pc}
 8000fc0:	40023c00 	.word	0x40023c00

08000fc4 <HAL_IncTick>:
 8000fc4:	4a03      	ldr	r2, [pc, #12]	@ (8000fd4 <HAL_IncTick+0x10>)
 8000fc6:	4b04      	ldr	r3, [pc, #16]	@ (8000fd8 <HAL_IncTick+0x14>)
 8000fc8:	6811      	ldr	r1, [r2, #0]
 8000fca:	781b      	ldrb	r3, [r3, #0]
 8000fcc:	440b      	add	r3, r1
 8000fce:	6013      	str	r3, [r2, #0]
 8000fd0:	4770      	bx	lr
 8000fd2:	bf00      	nop
 8000fd4:	20000240 	.word	0x20000240
 8000fd8:	2000000c 	.word	0x2000000c

08000fdc <HAL_GetTick>:
 8000fdc:	4b01      	ldr	r3, [pc, #4]	@ (8000fe4 <HAL_GetTick+0x8>)
 8000fde:	6818      	ldr	r0, [r3, #0]
 8000fe0:	4770      	bx	lr
 8000fe2:	bf00      	nop
 8000fe4:	20000240 	.word	0x20000240

08000fe8 <HAL_ADC_Init>:
 8000fe8:	b538      	push	{r3, r4, r5, lr}
 8000fea:	4604      	mov	r4, r0
 8000fec:	2800      	cmp	r0, #0
 8000fee:	f000 809b 	beq.w	8001128 <HAL_ADC_Init+0x140>
 8000ff2:	6c05      	ldr	r5, [r0, #64]	@ 0x40
 8000ff4:	b925      	cbnz	r5, 8001000 <HAL_ADC_Init+0x18>
 8000ff6:	f7ff fe89 	bl	8000d0c <HAL_ADC_MspInit>
 8000ffa:	6465      	str	r5, [r4, #68]	@ 0x44
 8000ffc:	f884 503c 	strb.w	r5, [r4, #60]	@ 0x3c
 8001000:	6c23      	ldr	r3, [r4, #64]	@ 0x40
 8001002:	06db      	lsls	r3, r3, #27
 8001004:	f100 808e 	bmi.w	8001124 <HAL_ADC_Init+0x13c>
 8001008:	6c23      	ldr	r3, [r4, #64]	@ 0x40
 800100a:	f423 5388 	bic.w	r3, r3, #4352	@ 0x1100
 800100e:	f023 0302 	bic.w	r3, r3, #2
 8001012:	f043 0302 	orr.w	r3, r3, #2
 8001016:	6423      	str	r3, [r4, #64]	@ 0x40
 8001018:	4b44      	ldr	r3, [pc, #272]	@ (800112c <HAL_ADC_Init+0x144>)
 800101a:	685a      	ldr	r2, [r3, #4]
 800101c:	f422 3240 	bic.w	r2, r2, #196608	@ 0x30000
 8001020:	605a      	str	r2, [r3, #4]
 8001022:	685a      	ldr	r2, [r3, #4]
 8001024:	6861      	ldr	r1, [r4, #4]
 8001026:	430a      	orrs	r2, r1
 8001028:	605a      	str	r2, [r3, #4]
 800102a:	6823      	ldr	r3, [r4, #0]
 800102c:	6921      	ldr	r1, [r4, #16]
 800102e:	685a      	ldr	r2, [r3, #4]
 8001030:	f422 7280 	bic.w	r2, r2, #256	@ 0x100
 8001034:	605a      	str	r2, [r3, #4]
 8001036:	685a      	ldr	r2, [r3, #4]
 8001038:	ea42 2201 	orr.w	r2, r2, r1, lsl #8
 800103c:	605a      	str	r2, [r3, #4]
 800103e:	685a      	ldr	r2, [r3, #4]
 8001040:	68a1      	ldr	r1, [r4, #8]
 8001042:	f022 7240 	bic.w	r2, r2, #50331648	@ 0x3000000
 8001046:	605a      	str	r2, [r3, #4]
 8001048:	685a      	ldr	r2, [r3, #4]
 800104a:	430a      	orrs	r2, r1
 800104c:	605a      	str	r2, [r3, #4]
 800104e:	689a      	ldr	r2, [r3, #8]
 8001050:	68e1      	ldr	r1, [r4, #12]
 8001052:	f422 6200 	bic.w	r2, r2, #2048	@ 0x800
 8001056:	609a      	str	r2, [r3, #8]
 8001058:	689a      	ldr	r2, [r3, #8]
 800105a:	430a      	orrs	r2, r1
 800105c:	609a      	str	r2, [r3, #8]
 800105e:	4934      	ldr	r1, [pc, #208]	@ (8001130 <HAL_ADC_Init+0x148>)
 8001060:	6aa2      	ldr	r2, [r4, #40]	@ 0x28
 8001062:	428a      	cmp	r2, r1
 8001064:	d052      	beq.n	800110c <HAL_ADC_Init+0x124>
 8001066:	6899      	ldr	r1, [r3, #8]
 8001068:	f021 6170 	bic.w	r1, r1, #251658240	@ 0xf000000
 800106c:	6099      	str	r1, [r3, #8]
 800106e:	6899      	ldr	r1, [r3, #8]
 8001070:	430a      	orrs	r2, r1
 8001072:	609a      	str	r2, [r3, #8]
 8001074:	689a      	ldr	r2, [r3, #8]
 8001076:	6ae1      	ldr	r1, [r4, #44]	@ 0x2c
 8001078:	f022 5240 	bic.w	r2, r2, #805306368	@ 0x30000000
 800107c:	609a      	str	r2, [r3, #8]
 800107e:	689a      	ldr	r2, [r3, #8]
 8001080:	430a      	orrs	r2, r1
 8001082:	609a      	str	r2, [r3, #8]
 8001084:	689a      	ldr	r2, [r3, #8]
 8001086:	f022 0202 	bic.w	r2, r2, #2
 800108a:	609a      	str	r2, [r3, #8]
 800108c:	689a      	ldr	r2, [r3, #8]
 800108e:	7e21      	ldrb	r1, [r4, #24]
 8001090:	ea42 0241 	orr.w	r2, r2, r1, lsl #1
 8001094:	609a      	str	r2, [r3, #8]
 8001096:	f894 2020 	ldrb.w	r2, [r4, #32]
 800109a:	2a00      	cmp	r2, #0
 800109c:	d03e      	beq.n	800111c <HAL_ADC_Init+0x134>
 800109e:	685a      	ldr	r2, [r3, #4]
 80010a0:	6a61      	ldr	r1, [r4, #36]	@ 0x24
 80010a2:	f442 6200 	orr.w	r2, r2, #2048	@ 0x800
 80010a6:	605a      	str	r2, [r3, #4]
 80010a8:	685a      	ldr	r2, [r3, #4]
 80010aa:	f422 4260 	bic.w	r2, r2, #57344	@ 0xe000
 80010ae:	605a      	str	r2, [r3, #4]
 80010b0:	685a      	ldr	r2, [r3, #4]
 80010b2:	3901      	subs	r1, #1
 80010b4:	ea42 3241 	orr.w	r2, r2, r1, lsl #13
 80010b8:	605a      	str	r2, [r3, #4]
 80010ba:	6ada      	ldr	r2, [r3, #44]	@ 0x2c
 80010bc:	69e1      	ldr	r1, [r4, #28]
 80010be:	f422 0270 	bic.w	r2, r2, #15728640	@ 0xf00000
 80010c2:	62da      	str	r2, [r3, #44]	@ 0x2c
 80010c4:	6ada      	ldr	r2, [r3, #44]	@ 0x2c
 80010c6:	3901      	subs	r1, #1
 80010c8:	ea42 5201 	orr.w	r2, r2, r1, lsl #20
 80010cc:	62da      	str	r2, [r3, #44]	@ 0x2c
 80010ce:	689a      	ldr	r2, [r3, #8]
 80010d0:	f422 7200 	bic.w	r2, r2, #512	@ 0x200
 80010d4:	609a      	str	r2, [r3, #8]
 80010d6:	689a      	ldr	r2, [r3, #8]
 80010d8:	f894 1030 	ldrb.w	r1, [r4, #48]	@ 0x30
 80010dc:	ea42 2241 	orr.w	r2, r2, r1, lsl #9
 80010e0:	609a      	str	r2, [r3, #8]
 80010e2:	689a      	ldr	r2, [r3, #8]
 80010e4:	6961      	ldr	r1, [r4, #20]
 80010e6:	f422 6280 	bic.w	r2, r2, #1024	@ 0x400
 80010ea:	609a      	str	r2, [r3, #8]
 80010ec:	689a      	ldr	r2, [r3, #8]
 80010ee:	2000      	movs	r0, #0
 80010f0:	ea42 2281 	orr.w	r2, r2, r1, lsl #10
 80010f4:	609a      	str	r2, [r3, #8]
 80010f6:	6460      	str	r0, [r4, #68]	@ 0x44
 80010f8:	6c23      	ldr	r3, [r4, #64]	@ 0x40
 80010fa:	f023 0303 	bic.w	r3, r3, #3
 80010fe:	f043 0301 	orr.w	r3, r3, #1
 8001102:	6423      	str	r3, [r4, #64]	@ 0x40
 8001104:	2300      	movs	r3, #0
 8001106:	f884 303c 	strb.w	r3, [r4, #60]	@ 0x3c
 800110a:	bd38      	pop	{r3, r4, r5, pc}
 800110c:	689a      	ldr	r2, [r3, #8]
 800110e:	f022 6270 	bic.w	r2, r2, #251658240	@ 0xf000000
 8001112:	609a      	str	r2, [r3, #8]
 8001114:	689a      	ldr	r2, [r3, #8]
 8001116:	f022 5240 	bic.w	r2, r2, #805306368	@ 0x30000000
 800111a:	e7b2      	b.n	8001082 <HAL_ADC_Init+0x9a>
 800111c:	685a      	ldr	r2, [r3, #4]
 800111e:	f422 6200 	bic.w	r2, r2, #2048	@ 0x800
 8001122:	e7c9      	b.n	80010b8 <HAL_ADC_Init+0xd0>
 8001124:	2001      	movs	r0, #1
 8001126:	e7ed      	b.n	8001104 <HAL_ADC_Init+0x11c>
 8001128:	2001      	movs	r0, #1
 800112a:	e7ee      	b.n	800110a <HAL_ADC_Init+0x122>
 800112c:	40012300 	.word	0x40012300
 8001130:	0f000001 	.word	0x0f000001

08001134 <HAL_ADC_Start_IT>:
 8001134:	b082      	sub	sp, #8
 8001136:	2300      	movs	r3, #0
 8001138:	9301      	str	r3, [sp, #4]
 800113a:	f890 303c 	ldrb.w	r3, [r0, #60]	@ 0x3c
 800113e:	2b01      	cmp	r3, #1
 8001140:	d06f      	beq.n	8001222 <HAL_ADC_Start_IT+0xee>
 8001142:	2301      	movs	r3, #1
 8001144:	f880 303c 	strb.w	r3, [r0, #60]	@ 0x3c
 8001148:	6803      	ldr	r3, [r0, #0]
 800114a:	689a      	ldr	r2, [r3, #8]
 800114c:	07d2      	lsls	r2, r2, #31
 800114e:	d50b      	bpl.n	8001168 <HAL_ADC_Start_IT+0x34>
 8001150:	689a      	ldr	r2, [r3, #8]
 8001152:	07d1      	lsls	r1, r2, #31
 8001154:	d41a      	bmi.n	800118c <HAL_ADC_Start_IT+0x58>
 8001156:	6c03      	ldr	r3, [r0, #64]	@ 0x40
 8001158:	f043 0310 	orr.w	r3, r3, #16
 800115c:	6403      	str	r3, [r0, #64]	@ 0x40
 800115e:	6c43      	ldr	r3, [r0, #68]	@ 0x44
 8001160:	f043 0301 	orr.w	r3, r3, #1
 8001164:	6443      	str	r3, [r0, #68]	@ 0x44
 8001166:	e052      	b.n	800120e <HAL_ADC_Start_IT+0xda>
 8001168:	689a      	ldr	r2, [r3, #8]
 800116a:	492f      	ldr	r1, [pc, #188]	@ (8001228 <HAL_ADC_Start_IT+0xf4>)
 800116c:	f042 0201 	orr.w	r2, r2, #1
 8001170:	609a      	str	r2, [r3, #8]
 8001172:	4a2e      	ldr	r2, [pc, #184]	@ (800122c <HAL_ADC_Start_IT+0xf8>)
 8001174:	6812      	ldr	r2, [r2, #0]
 8001176:	fbb2 f2f1 	udiv	r2, r2, r1
 800117a:	eb02 0242 	add.w	r2, r2, r2, lsl #1
 800117e:	9201      	str	r2, [sp, #4]
 8001180:	9a01      	ldr	r2, [sp, #4]
 8001182:	2a00      	cmp	r2, #0
 8001184:	d0e4      	beq.n	8001150 <HAL_ADC_Start_IT+0x1c>
 8001186:	9a01      	ldr	r2, [sp, #4]
 8001188:	3a01      	subs	r2, #1
 800118a:	e7f8      	b.n	800117e <HAL_ADC_Start_IT+0x4a>
 800118c:	6c02      	ldr	r2, [r0, #64]	@ 0x40
 800118e:	f422 62e0 	bic.w	r2, r2, #1792	@ 0x700
 8001192:	f022 0201 	bic.w	r2, r2, #1
 8001196:	f442 7280 	orr.w	r2, r2, #256	@ 0x100
 800119a:	6402      	str	r2, [r0, #64]	@ 0x40
 800119c:	685a      	ldr	r2, [r3, #4]
 800119e:	0552      	lsls	r2, r2, #21
 80011a0:	bf41      	itttt	mi
 80011a2:	6c02      	ldrmi	r2, [r0, #64]	@ 0x40
 80011a4:	f422 5240 	bicmi.w	r2, r2, #12288	@ 0x3000
 80011a8:	f442 5280 	orrmi.w	r2, r2, #4096	@ 0x1000
 80011ac:	6402      	strmi	r2, [r0, #64]	@ 0x40
 80011ae:	6c02      	ldr	r2, [r0, #64]	@ 0x40
 80011b0:	f412 5280 	ands.w	r2, r2, #4096	@ 0x1000
 80011b4:	bf1c      	itt	ne
 80011b6:	6c42      	ldrne	r2, [r0, #68]	@ 0x44
 80011b8:	f022 0206 	bicne.w	r2, r2, #6
 80011bc:	6442      	str	r2, [r0, #68]	@ 0x44
 80011be:	2200      	movs	r2, #0
 80011c0:	f880 203c 	strb.w	r2, [r0, #60]	@ 0x3c
 80011c4:	f06f 0222 	mvn.w	r2, #34	@ 0x22
 80011c8:	601a      	str	r2, [r3, #0]
 80011ca:	685a      	ldr	r2, [r3, #4]
 80011cc:	f042 6280 	orr.w	r2, r2, #67108864	@ 0x4000000
 80011d0:	f042 0220 	orr.w	r2, r2, #32
 80011d4:	605a      	str	r2, [r3, #4]
 80011d6:	4a16      	ldr	r2, [pc, #88]	@ (8001230 <HAL_ADC_Start_IT+0xfc>)
 80011d8:	6851      	ldr	r1, [r2, #4]
 80011da:	f011 0f1f 	tst.w	r1, #31
 80011de:	4915      	ldr	r1, [pc, #84]	@ (8001234 <HAL_ADC_Start_IT+0x100>)
 80011e0:	d11c      	bne.n	800121c <HAL_ADC_Start_IT+0xe8>
 80011e2:	428b      	cmp	r3, r1
 80011e4:	d007      	beq.n	80011f6 <HAL_ADC_Start_IT+0xc2>
 80011e6:	f501 7180 	add.w	r1, r1, #256	@ 0x100
 80011ea:	428b      	cmp	r3, r1
 80011ec:	d10c      	bne.n	8001208 <HAL_ADC_Start_IT+0xd4>
 80011ee:	6852      	ldr	r2, [r2, #4]
 80011f0:	f012 0f1f 	tst.w	r2, #31
 80011f4:	d10b      	bne.n	800120e <HAL_ADC_Start_IT+0xda>
 80011f6:	689a      	ldr	r2, [r3, #8]
 80011f8:	f012 5f40 	tst.w	r2, #805306368	@ 0x30000000
 80011fc:	d107      	bne.n	800120e <HAL_ADC_Start_IT+0xda>
 80011fe:	689a      	ldr	r2, [r3, #8]
 8001200:	f042 4280 	orr.w	r2, r2, #1073741824	@ 0x40000000
 8001204:	609a      	str	r2, [r3, #8]
 8001206:	e002      	b.n	800120e <HAL_ADC_Start_IT+0xda>
 8001208:	490b      	ldr	r1, [pc, #44]	@ (8001238 <HAL_ADC_Start_IT+0x104>)
 800120a:	428b      	cmp	r3, r1
 800120c:	d002      	beq.n	8001214 <HAL_ADC_Start_IT+0xe0>
 800120e:	2000      	movs	r0, #0
 8001210:	b002      	add	sp, #8
 8001212:	4770      	bx	lr
 8001214:	6852      	ldr	r2, [r2, #4]
 8001216:	f012 0f10 	tst.w	r2, #16
 800121a:	e7eb      	b.n	80011f4 <HAL_ADC_Start_IT+0xc0>
 800121c:	428b      	cmp	r3, r1
 800121e:	d1f6      	bne.n	800120e <HAL_ADC_Start_IT+0xda>
 8001220:	e7e9      	b.n	80011f6 <HAL_ADC_Start_IT+0xc2>
 8001222:	2002      	movs	r0, #2
 8001224:	e7f4      	b.n	8001210 <HAL_ADC_Start_IT+0xdc>
 8001226:	bf00      	nop
 8001228:	000f4240 	.word	0x000f4240
 800122c:	20000008 	.word	0x20000008
 8001230:	40012300 	.word	0x40012300
 8001234:	40012000 	.word	0x40012000
 8001238:	40012200 	.word	0x40012200

0800123c <HAL_ADC_GetValue>:
 800123c:	6803      	ldr	r3, [r0, #0]
 800123e:	6cd8      	ldr	r0, [r3, #76]	@ 0x4c
 8001240:	4770      	bx	lr

08001242 <HAL_ADC_LevelOutOfWindowCallback>:
 8001242:	4770      	bx	lr

08001244 <HAL_ADC_ErrorCallback>:
 8001244:	4770      	bx	lr

08001246 <HAL_ADC_IRQHandler>:
 8001246:	6803      	ldr	r3, [r0, #0]
 8001248:	b570      	push	{r4, r5, r6, lr}
 800124a:	681e      	ldr	r6, [r3, #0]
 800124c:	685d      	ldr	r5, [r3, #4]
 800124e:	07b2      	lsls	r2, r6, #30
 8001250:	4604      	mov	r4, r0
 8001252:	d52b      	bpl.n	80012ac <HAL_ADC_IRQHandler+0x66>
 8001254:	06a8      	lsls	r0, r5, #26
 8001256:	d529      	bpl.n	80012ac <HAL_ADC_IRQHandler+0x66>
 8001258:	6c22      	ldr	r2, [r4, #64]	@ 0x40
 800125a:	06d1      	lsls	r1, r2, #27
 800125c:	bf5e      	ittt	pl
 800125e:	6c22      	ldrpl	r2, [r4, #64]	@ 0x40
 8001260:	f442 7200 	orrpl.w	r2, r2, #512	@ 0x200
 8001264:	6422      	strpl	r2, [r4, #64]	@ 0x40
 8001266:	689a      	ldr	r2, [r3, #8]
 8001268:	f012 5f40 	tst.w	r2, #805306368	@ 0x30000000
 800126c:	d117      	bne.n	800129e <HAL_ADC_IRQHandler+0x58>
 800126e:	7e22      	ldrb	r2, [r4, #24]
 8001270:	b9aa      	cbnz	r2, 800129e <HAL_ADC_IRQHandler+0x58>
 8001272:	6ada      	ldr	r2, [r3, #44]	@ 0x2c
 8001274:	f412 0f70 	tst.w	r2, #15728640	@ 0xf00000
 8001278:	d002      	beq.n	8001280 <HAL_ADC_IRQHandler+0x3a>
 800127a:	689a      	ldr	r2, [r3, #8]
 800127c:	0552      	lsls	r2, r2, #21
 800127e:	d40e      	bmi.n	800129e <HAL_ADC_IRQHandler+0x58>
 8001280:	685a      	ldr	r2, [r3, #4]
 8001282:	f022 0220 	bic.w	r2, r2, #32
 8001286:	605a      	str	r2, [r3, #4]
 8001288:	6c23      	ldr	r3, [r4, #64]	@ 0x40
 800128a:	f423 7380 	bic.w	r3, r3, #256	@ 0x100
 800128e:	6423      	str	r3, [r4, #64]	@ 0x40
 8001290:	6c23      	ldr	r3, [r4, #64]	@ 0x40
 8001292:	04d8      	lsls	r0, r3, #19
 8001294:	bf5e      	ittt	pl
 8001296:	6c23      	ldrpl	r3, [r4, #64]	@ 0x40
 8001298:	f043 0301 	orrpl.w	r3, r3, #1
 800129c:	6423      	strpl	r3, [r4, #64]	@ 0x40
 800129e:	4620      	mov	r0, r4
 80012a0:	f7ff fcc6 	bl	8000c30 <HAL_ADC_ConvCpltCallback>
 80012a4:	6823      	ldr	r3, [r4, #0]
 80012a6:	f06f 0212 	mvn.w	r2, #18
 80012aa:	601a      	str	r2, [r3, #0]
 80012ac:	0771      	lsls	r1, r6, #29
 80012ae:	d533      	bpl.n	8001318 <HAL_ADC_IRQHandler+0xd2>
 80012b0:	062a      	lsls	r2, r5, #24
 80012b2:	d531      	bpl.n	8001318 <HAL_ADC_IRQHandler+0xd2>
 80012b4:	6c23      	ldr	r3, [r4, #64]	@ 0x40
 80012b6:	06db      	lsls	r3, r3, #27
 80012b8:	bf5e      	ittt	pl
 80012ba:	6c23      	ldrpl	r3, [r4, #64]	@ 0x40
 80012bc:	f443 5300 	orrpl.w	r3, r3, #8192	@ 0x2000
 80012c0:	6423      	strpl	r3, [r4, #64]	@ 0x40
 80012c2:	6823      	ldr	r3, [r4, #0]
 80012c4:	689a      	ldr	r2, [r3, #8]
 80012c6:	f412 1f40 	tst.w	r2, #3145728	@ 0x300000
 80012ca:	d11e      	bne.n	800130a <HAL_ADC_IRQHandler+0xc4>
 80012cc:	6b9a      	ldr	r2, [r3, #56]	@ 0x38
 80012ce:	f412 1f40 	tst.w	r2, #3145728	@ 0x300000
 80012d2:	d002      	beq.n	80012da <HAL_ADC_IRQHandler+0x94>
 80012d4:	689a      	ldr	r2, [r3, #8]
 80012d6:	0550      	lsls	r0, r2, #21
 80012d8:	d417      	bmi.n	800130a <HAL_ADC_IRQHandler+0xc4>
 80012da:	685a      	ldr	r2, [r3, #4]
 80012dc:	0551      	lsls	r1, r2, #21
 80012de:	d414      	bmi.n	800130a <HAL_ADC_IRQHandler+0xc4>
 80012e0:	689a      	ldr	r2, [r3, #8]
 80012e2:	f012 5f40 	tst.w	r2, #805306368	@ 0x30000000
 80012e6:	d110      	bne.n	800130a <HAL_ADC_IRQHandler+0xc4>
 80012e8:	7e22      	ldrb	r2, [r4, #24]
 80012ea:	b972      	cbnz	r2, 800130a <HAL_ADC_IRQHandler+0xc4>
 80012ec:	685a      	ldr	r2, [r3, #4]
 80012ee:	f022 0280 	bic.w	r2, r2, #128	@ 0x80
 80012f2:	605a      	str	r2, [r3, #4]
 80012f4:	6c23      	ldr	r3, [r4, #64]	@ 0x40
 80012f6:	f423 5380 	bic.w	r3, r3, #4096	@ 0x1000
 80012fa:	6423      	str	r3, [r4, #64]	@ 0x40
 80012fc:	6c23      	ldr	r3, [r4, #64]	@ 0x40
 80012fe:	05da      	lsls	r2, r3, #23
 8001300:	bf5e      	ittt	pl
 8001302:	6c23      	ldrpl	r3, [r4, #64]	@ 0x40
 8001304:	f043 0301 	orrpl.w	r3, r3, #1
 8001308:	6423      	strpl	r3, [r4, #64]	@ 0x40
 800130a:	4620      	mov	r0, r4
 800130c:	f000 f8c6 	bl	800149c <HAL_ADCEx_InjectedConvCpltCallback>
 8001310:	6823      	ldr	r3, [r4, #0]
 8001312:	f06f 020c 	mvn.w	r2, #12
 8001316:	601a      	str	r2, [r3, #0]
 8001318:	07f3      	lsls	r3, r6, #31
 800131a:	d510      	bpl.n	800133e <HAL_ADC_IRQHandler+0xf8>
 800131c:	0668      	lsls	r0, r5, #25
 800131e:	d50e      	bpl.n	800133e <HAL_ADC_IRQHandler+0xf8>
 8001320:	6823      	ldr	r3, [r4, #0]
 8001322:	681b      	ldr	r3, [r3, #0]
 8001324:	07d9      	lsls	r1, r3, #31
 8001326:	d50a      	bpl.n	800133e <HAL_ADC_IRQHandler+0xf8>
 8001328:	6c23      	ldr	r3, [r4, #64]	@ 0x40
 800132a:	f443 3380 	orr.w	r3, r3, #65536	@ 0x10000
 800132e:	6423      	str	r3, [r4, #64]	@ 0x40
 8001330:	4620      	mov	r0, r4
 8001332:	f7ff ff86 	bl	8001242 <HAL_ADC_LevelOutOfWindowCallback>
 8001336:	6823      	ldr	r3, [r4, #0]
 8001338:	f06f 0201 	mvn.w	r2, #1
 800133c:	601a      	str	r2, [r3, #0]
 800133e:	06b2      	lsls	r2, r6, #26
 8001340:	d50e      	bpl.n	8001360 <HAL_ADC_IRQHandler+0x11a>
 8001342:	016b      	lsls	r3, r5, #5
 8001344:	d50c      	bpl.n	8001360 <HAL_ADC_IRQHandler+0x11a>
 8001346:	6c63      	ldr	r3, [r4, #68]	@ 0x44
 8001348:	f043 0302 	orr.w	r3, r3, #2
 800134c:	6463      	str	r3, [r4, #68]	@ 0x44
 800134e:	6823      	ldr	r3, [r4, #0]
 8001350:	f06f 0520 	mvn.w	r5, #32
 8001354:	601d      	str	r5, [r3, #0]
 8001356:	4620      	mov	r0, r4
 8001358:	f7ff ff74 	bl	8001244 <HAL_ADC_ErrorCallback>
 800135c:	6823      	ldr	r3, [r4, #0]
 800135e:	601d      	str	r5, [r3, #0]
 8001360:	bd70      	pop	{r4, r5, r6, pc}
	...

08001364 <HAL_ADC_ConfigChannel>:
 8001364:	b5f7      	push	{r0, r1, r2, r4, r5, r6, r7, lr}
 8001366:	2300      	movs	r3, #0
 8001368:	9301      	str	r3, [sp, #4]
 800136a:	f890 303c 	ldrb.w	r3, [r0, #60]	@ 0x3c
 800136e:	2b01      	cmp	r3, #1
 8001370:	4605      	mov	r5, r0
 8001372:	f000 8086 	beq.w	8001482 <HAL_ADC_ConfigChannel+0x11e>
 8001376:	2301      	movs	r3, #1
 8001378:	f880 303c 	strb.w	r3, [r0, #60]	@ 0x3c
 800137c:	6808      	ldr	r0, [r1, #0]
 800137e:	682b      	ldr	r3, [r5, #0]
 8001380:	688e      	ldr	r6, [r1, #8]
 8001382:	2809      	cmp	r0, #9
 8001384:	b284      	uxth	r4, r0
 8001386:	d933      	bls.n	80013f0 <HAL_ADC_ConfigChannel+0x8c>
 8001388:	eb04 0244 	add.w	r2, r4, r4, lsl #1
 800138c:	68df      	ldr	r7, [r3, #12]
 800138e:	3a1e      	subs	r2, #30
 8001390:	f04f 0c07 	mov.w	ip, #7
 8001394:	fa0c fc02 	lsl.w	ip, ip, r2
 8001398:	ea27 070c 	bic.w	r7, r7, ip
 800139c:	60df      	str	r7, [r3, #12]
 800139e:	68df      	ldr	r7, [r3, #12]
 80013a0:	fa06 f202 	lsl.w	r2, r6, r2
 80013a4:	433a      	orrs	r2, r7
 80013a6:	60da      	str	r2, [r3, #12]
 80013a8:	6849      	ldr	r1, [r1, #4]
 80013aa:	2906      	cmp	r1, #6
 80013ac:	eb01 0281 	add.w	r2, r1, r1, lsl #2
 80013b0:	d82d      	bhi.n	800140e <HAL_ADC_ConfigChannel+0xaa>
 80013b2:	6b59      	ldr	r1, [r3, #52]	@ 0x34
 80013b4:	3a05      	subs	r2, #5
 80013b6:	261f      	movs	r6, #31
 80013b8:	4096      	lsls	r6, r2
 80013ba:	ea21 0106 	bic.w	r1, r1, r6
 80013be:	6359      	str	r1, [r3, #52]	@ 0x34
 80013c0:	6b59      	ldr	r1, [r3, #52]	@ 0x34
 80013c2:	fa04 f202 	lsl.w	r2, r4, r2
 80013c6:	430a      	orrs	r2, r1
 80013c8:	635a      	str	r2, [r3, #52]	@ 0x34
 80013ca:	4a2f      	ldr	r2, [pc, #188]	@ (8001488 <HAL_ADC_ConfigChannel+0x124>)
 80013cc:	4293      	cmp	r3, r2
 80013ce:	d10a      	bne.n	80013e6 <HAL_ADC_ConfigChannel+0x82>
 80013d0:	2812      	cmp	r0, #18
 80013d2:	d137      	bne.n	8001444 <HAL_ADC_ConfigChannel+0xe0>
 80013d4:	4b2d      	ldr	r3, [pc, #180]	@ (800148c <HAL_ADC_ConfigChannel+0x128>)
 80013d6:	685a      	ldr	r2, [r3, #4]
 80013d8:	f422 0200 	bic.w	r2, r2, #8388608	@ 0x800000
 80013dc:	605a      	str	r2, [r3, #4]
 80013de:	685a      	ldr	r2, [r3, #4]
 80013e0:	f442 0280 	orr.w	r2, r2, #4194304	@ 0x400000
 80013e4:	605a      	str	r2, [r3, #4]
 80013e6:	2000      	movs	r0, #0
 80013e8:	f885 003c 	strb.w	r0, [r5, #60]	@ 0x3c
 80013ec:	b003      	add	sp, #12
 80013ee:	bdf0      	pop	{r4, r5, r6, r7, pc}
 80013f0:	691a      	ldr	r2, [r3, #16]
 80013f2:	eb00 0c40 	add.w	ip, r0, r0, lsl #1
 80013f6:	2707      	movs	r7, #7
 80013f8:	fa07 f70c 	lsl.w	r7, r7, ip
 80013fc:	ea22 0207 	bic.w	r2, r2, r7
 8001400:	611a      	str	r2, [r3, #16]
 8001402:	691a      	ldr	r2, [r3, #16]
 8001404:	fa06 f60c 	lsl.w	r6, r6, ip
 8001408:	4316      	orrs	r6, r2
 800140a:	611e      	str	r6, [r3, #16]
 800140c:	e7cc      	b.n	80013a8 <HAL_ADC_ConfigChannel+0x44>
 800140e:	290c      	cmp	r1, #12
 8001410:	f04f 011f 	mov.w	r1, #31
 8001414:	d80b      	bhi.n	800142e <HAL_ADC_ConfigChannel+0xca>
 8001416:	6b1e      	ldr	r6, [r3, #48]	@ 0x30
 8001418:	3a23      	subs	r2, #35	@ 0x23
 800141a:	4091      	lsls	r1, r2
 800141c:	ea26 0101 	bic.w	r1, r6, r1
 8001420:	6319      	str	r1, [r3, #48]	@ 0x30
 8001422:	6b19      	ldr	r1, [r3, #48]	@ 0x30
 8001424:	fa04 f202 	lsl.w	r2, r4, r2
 8001428:	430a      	orrs	r2, r1
 800142a:	631a      	str	r2, [r3, #48]	@ 0x30
 800142c:	e7cd      	b.n	80013ca <HAL_ADC_ConfigChannel+0x66>
 800142e:	6ade      	ldr	r6, [r3, #44]	@ 0x2c
 8001430:	3a41      	subs	r2, #65	@ 0x41
 8001432:	4091      	lsls	r1, r2
 8001434:	ea26 0101 	bic.w	r1, r6, r1
 8001438:	62d9      	str	r1, [r3, #44]	@ 0x2c
 800143a:	6ad9      	ldr	r1, [r3, #44]	@ 0x2c
 800143c:	4094      	lsls	r4, r2
 800143e:	430c      	orrs	r4, r1
 8001440:	62dc      	str	r4, [r3, #44]	@ 0x2c
 8001442:	e7c2      	b.n	80013ca <HAL_ADC_ConfigChannel+0x66>
 8001444:	4b12      	ldr	r3, [pc, #72]	@ (8001490 <HAL_ADC_ConfigChannel+0x12c>)
 8001446:	4298      	cmp	r0, r3
 8001448:	d001      	beq.n	800144e <HAL_ADC_ConfigChannel+0xea>
 800144a:	2811      	cmp	r0, #17
 800144c:	d1cb      	bne.n	80013e6 <HAL_ADC_ConfigChannel+0x82>
 800144e:	4b0f      	ldr	r3, [pc, #60]	@ (800148c <HAL_ADC_ConfigChannel+0x128>)
 8001450:	685a      	ldr	r2, [r3, #4]
 8001452:	f422 0280 	bic.w	r2, r2, #4194304	@ 0x400000
 8001456:	605a      	str	r2, [r3, #4]
 8001458:	685a      	ldr	r2, [r3, #4]
 800145a:	f442 0200 	orr.w	r2, r2, #8388608	@ 0x800000
 800145e:	605a      	str	r2, [r3, #4]
 8001460:	4b0b      	ldr	r3, [pc, #44]	@ (8001490 <HAL_ADC_ConfigChannel+0x12c>)
 8001462:	4298      	cmp	r0, r3
 8001464:	d1bf      	bne.n	80013e6 <HAL_ADC_ConfigChannel+0x82>
 8001466:	4b0b      	ldr	r3, [pc, #44]	@ (8001494 <HAL_ADC_ConfigChannel+0x130>)
 8001468:	4a0b      	ldr	r2, [pc, #44]	@ (8001498 <HAL_ADC_ConfigChannel+0x134>)
 800146a:	681b      	ldr	r3, [r3, #0]
 800146c:	fbb3 f3f2 	udiv	r3, r3, r2
 8001470:	220a      	movs	r2, #10
 8001472:	4353      	muls	r3, r2
 8001474:	9301      	str	r3, [sp, #4]
 8001476:	9b01      	ldr	r3, [sp, #4]
 8001478:	2b00      	cmp	r3, #0
 800147a:	d0b4      	beq.n	80013e6 <HAL_ADC_ConfigChannel+0x82>
 800147c:	9b01      	ldr	r3, [sp, #4]
 800147e:	3b01      	subs	r3, #1
 8001480:	e7f8      	b.n	8001474 <HAL_ADC_ConfigChannel+0x110>
 8001482:	2002      	movs	r0, #2
 8001484:	e7b2      	b.n	80013ec <HAL_ADC_ConfigChannel+0x88>
 8001486:	bf00      	nop
 8001488:	40012000 	.word	0x40012000
 800148c:	40012300 	.word	0x40012300
 8001490:	10000012 	.word	0x10000012
 8001494:	20000008 	.word	0x20000008
 8001498:	000f4240 	.word	0x000f4240

0800149c <HAL_ADCEx_InjectedConvCpltCallback>:
 800149c:	4770      	bx	lr
	...

080014a0 <HAL_NVIC_SetPriorityGrouping>:
 80014a0:	4907      	ldr	r1, [pc, #28]	@ (80014c0 <HAL_NVIC_SetPriorityGrouping+0x20>)
 80014a2:	68ca      	ldr	r2, [r1, #12]
 80014a4:	f422 62e0 	bic.w	r2, r2, #1792	@ 0x700
 80014a8:	0203      	lsls	r3, r0, #8
 80014aa:	0412      	lsls	r2, r2, #16
 80014ac:	f403 63e0 	and.w	r3, r3, #1792	@ 0x700
 80014b0:	0c12      	lsrs	r2, r2, #16
 80014b2:	4313      	orrs	r3, r2
 80014b4:	f043 63bf 	orr.w	r3, r3, #100139008	@ 0x5f80000
 80014b8:	f443 3300 	orr.w	r3, r3, #131072	@ 0x20000
 80014bc:	60cb      	str	r3, [r1, #12]
 80014be:	4770      	bx	lr
 80014c0:	e000ed00 	.word	0xe000ed00

080014c4 <HAL_NVIC_SetPriority>:
 80014c4:	4b16      	ldr	r3, [pc, #88]	@ (8001520 <HAL_NVIC_SetPriority+0x5c>)
 80014c6:	b530      	push	{r4, r5, lr}
 80014c8:	68dc      	ldr	r4, [r3, #12]
 80014ca:	f3c4 2402 	ubfx	r4, r4, #8, #3
 80014ce:	f1c4 0307 	rsb	r3, r4, #7
 80014d2:	1d25      	adds	r5, r4, #4
 80014d4:	2b04      	cmp	r3, #4
 80014d6:	bf28      	it	cs
 80014d8:	2304      	movcs	r3, #4
 80014da:	2d06      	cmp	r5, #6
 80014dc:	f04f 35ff 	mov.w	r5, #4294967295
 80014e0:	bf8c      	ite	hi
 80014e2:	3c03      	subhi	r4, #3
 80014e4:	2400      	movls	r4, #0
 80014e6:	fa05 f303 	lsl.w	r3, r5, r3
 80014ea:	ea21 0303 	bic.w	r3, r1, r3
 80014ee:	40a5      	lsls	r5, r4
 80014f0:	ea22 0205 	bic.w	r2, r2, r5
 80014f4:	40a3      	lsls	r3, r4
 80014f6:	2800      	cmp	r0, #0
 80014f8:	ea43 0302 	orr.w	r3, r3, r2
 80014fc:	bfac      	ite	ge
 80014fe:	f100 4060 	addge.w	r0, r0, #3758096384	@ 0xe0000000
 8001502:	4a08      	ldrlt	r2, [pc, #32]	@ (8001524 <HAL_NVIC_SetPriority+0x60>)
 8001504:	ea4f 1303 	mov.w	r3, r3, lsl #4
 8001508:	bfb8      	it	lt
 800150a:	f000 000f 	andlt.w	r0, r0, #15
 800150e:	b2db      	uxtb	r3, r3
 8001510:	bfaa      	itet	ge
 8001512:	f500 4061 	addge.w	r0, r0, #57600	@ 0xe100
 8001516:	5413      	strblt	r3, [r2, r0]
 8001518:	f880 3300 	strbge.w	r3, [r0, #768]	@ 0x300
 800151c:	bd30      	pop	{r4, r5, pc}
 800151e:	bf00      	nop
 8001520:	e000ed00 	.word	0xe000ed00
 8001524:	e000ed14 	.word	0xe000ed14

08001528 <HAL_NVIC_EnableIRQ>:
 8001528:	2800      	cmp	r0, #0
 800152a:	db07      	blt.n	800153c <HAL_NVIC_EnableIRQ+0x14>
 800152c:	4a04      	ldr	r2, [pc, #16]	@ (8001540 <HAL_NVIC_EnableIRQ+0x18>)
 800152e:	0941      	lsrs	r1, r0, #5
 8001530:	2301      	movs	r3, #1
 8001532:	f000 001f 	and.w	r0, r0, #31
 8001536:	4083      	lsls	r3, r0
 8001538:	f842 3021 	str.w	r3, [r2, r1, lsl #2]
 800153c:	4770      	bx	lr
 800153e:	bf00      	nop
 8001540:	e000e100 	.word	0xe000e100

08001544 <HAL_SYSTICK_Config>:
 8001544:	3801      	subs	r0, #1
 8001546:	f1b0 7f80 	cmp.w	r0, #16777216	@ 0x1000000
 800154a:	d20b      	bcs.n	8001564 <HAL_SYSTICK_Config+0x20>
 800154c:	f04f 23e0 	mov.w	r3, #3758153728	@ 0xe000e000
 8001550:	4a05      	ldr	r2, [pc, #20]	@ (8001568 <HAL_SYSTICK_Config+0x24>)
 8001552:	6158      	str	r0, [r3, #20]
 8001554:	21f0      	movs	r1, #240	@ 0xf0
 8001556:	f882 1023 	strb.w	r1, [r2, #35]	@ 0x23
 800155a:	2000      	movs	r0, #0
 800155c:	2207      	movs	r2, #7
 800155e:	6198      	str	r0, [r3, #24]
 8001560:	611a      	str	r2, [r3, #16]
 8001562:	4770      	bx	lr
 8001564:	2001      	movs	r0, #1
 8001566:	4770      	bx	lr
 8001568:	e000ed00 	.word	0xe000ed00

0800156c <HAL_GPIO_Init>:
 800156c:	e92d 4ff7 	stmdb	sp!, {r0, r1, r2, r4, r5, r6, r7, r8, r9, sl, fp, lr}
 8001570:	f8df 9198 	ldr.w	r9, [pc, #408]	@ 800170c <HAL_GPIO_Init+0x1a0>
 8001574:	4a63      	ldr	r2, [pc, #396]	@ (8001704 <HAL_GPIO_Init+0x198>)
 8001576:	2300      	movs	r3, #0
 8001578:	680d      	ldr	r5, [r1, #0]
 800157a:	2401      	movs	r4, #1
 800157c:	409c      	lsls	r4, r3
 800157e:	ea04 0605 	and.w	r6, r4, r5
 8001582:	43ac      	bics	r4, r5
 8001584:	f040 80ab 	bne.w	80016de <HAL_GPIO_Init+0x172>
 8001588:	684d      	ldr	r5, [r1, #4]
 800158a:	2703      	movs	r7, #3
 800158c:	f005 0403 	and.w	r4, r5, #3
 8001590:	ea4f 0843 	mov.w	r8, r3, lsl #1
 8001594:	fa07 fc08 	lsl.w	ip, r7, r8
 8001598:	1e67      	subs	r7, r4, #1
 800159a:	2f01      	cmp	r7, #1
 800159c:	ea6f 0c0c 	mvn.w	ip, ip
 80015a0:	d834      	bhi.n	800160c <HAL_GPIO_Init+0xa0>
 80015a2:	6887      	ldr	r7, [r0, #8]
 80015a4:	ea07 0e0c 	and.w	lr, r7, ip
 80015a8:	68cf      	ldr	r7, [r1, #12]
 80015aa:	fa07 f708 	lsl.w	r7, r7, r8
 80015ae:	ea47 070e 	orr.w	r7, r7, lr
 80015b2:	6087      	str	r7, [r0, #8]
 80015b4:	6847      	ldr	r7, [r0, #4]
 80015b6:	ea27 0e06 	bic.w	lr, r7, r6
 80015ba:	f3c5 1700 	ubfx	r7, r5, #4, #1
 80015be:	409f      	lsls	r7, r3
 80015c0:	ea47 070e 	orr.w	r7, r7, lr
 80015c4:	6047      	str	r7, [r0, #4]
 80015c6:	68c7      	ldr	r7, [r0, #12]
 80015c8:	ea07 0e0c 	and.w	lr, r7, ip
 80015cc:	688f      	ldr	r7, [r1, #8]
 80015ce:	fa07 f708 	lsl.w	r7, r7, r8
 80015d2:	ea47 070e 	orr.w	r7, r7, lr
 80015d6:	2c02      	cmp	r4, #2
 80015d8:	60c7      	str	r7, [r0, #12]
 80015da:	d119      	bne.n	8001610 <HAL_GPIO_Init+0xa4>
 80015dc:	ea4f 0ad3 	mov.w	sl, r3, lsr #3
 80015e0:	eb00 0a8a 	add.w	sl, r0, sl, lsl #2
 80015e4:	f003 0b07 	and.w	fp, r3, #7
 80015e8:	f8da 7020 	ldr.w	r7, [sl, #32]
 80015ec:	ea4f 0b8b 	mov.w	fp, fp, lsl #2
 80015f0:	f04f 0e0f 	mov.w	lr, #15
 80015f4:	fa0e fe0b 	lsl.w	lr, lr, fp
 80015f8:	ea27 0e0e 	bic.w	lr, r7, lr
 80015fc:	690f      	ldr	r7, [r1, #16]
 80015fe:	fa07 f70b 	lsl.w	r7, r7, fp
 8001602:	ea47 070e 	orr.w	r7, r7, lr
 8001606:	f8ca 7020 	str.w	r7, [sl, #32]
 800160a:	e001      	b.n	8001610 <HAL_GPIO_Init+0xa4>
 800160c:	2c03      	cmp	r4, #3
 800160e:	d1da      	bne.n	80015c6 <HAL_GPIO_Init+0x5a>
 8001610:	6807      	ldr	r7, [r0, #0]
 8001612:	fa04 f408 	lsl.w	r4, r4, r8
 8001616:	ea07 070c 	and.w	r7, r7, ip
 800161a:	433c      	orrs	r4, r7
 800161c:	f415 3f40 	tst.w	r5, #196608	@ 0x30000
 8001620:	6004      	str	r4, [r0, #0]
 8001622:	d05c      	beq.n	80016de <HAL_GPIO_Init+0x172>
 8001624:	2400      	movs	r4, #0
 8001626:	9401      	str	r4, [sp, #4]
 8001628:	f8d9 4044 	ldr.w	r4, [r9, #68]	@ 0x44
 800162c:	f444 4480 	orr.w	r4, r4, #16384	@ 0x4000
 8001630:	f8c9 4044 	str.w	r4, [r9, #68]	@ 0x44
 8001634:	f8d9 4044 	ldr.w	r4, [r9, #68]	@ 0x44
 8001638:	f023 0703 	bic.w	r7, r3, #3
 800163c:	f107 4780 	add.w	r7, r7, #1073741824	@ 0x40000000
 8001640:	f404 4480 	and.w	r4, r4, #16384	@ 0x4000
 8001644:	f507 379c 	add.w	r7, r7, #79872	@ 0x13800
 8001648:	9401      	str	r4, [sp, #4]
 800164a:	f003 0c03 	and.w	ip, r3, #3
 800164e:	9c01      	ldr	r4, [sp, #4]
 8001650:	f8d7 e008 	ldr.w	lr, [r7, #8]
 8001654:	ea4f 0c8c 	mov.w	ip, ip, lsl #2
 8001658:	240f      	movs	r4, #15
 800165a:	fa04 f40c 	lsl.w	r4, r4, ip
 800165e:	ea2e 0e04 	bic.w	lr, lr, r4
 8001662:	4c29      	ldr	r4, [pc, #164]	@ (8001708 <HAL_GPIO_Init+0x19c>)
 8001664:	42a0      	cmp	r0, r4
 8001666:	d041      	beq.n	80016ec <HAL_GPIO_Init+0x180>
 8001668:	f504 6480 	add.w	r4, r4, #1024	@ 0x400
 800166c:	42a0      	cmp	r0, r4
 800166e:	d03f      	beq.n	80016f0 <HAL_GPIO_Init+0x184>
 8001670:	f504 6480 	add.w	r4, r4, #1024	@ 0x400
 8001674:	42a0      	cmp	r0, r4
 8001676:	d03d      	beq.n	80016f4 <HAL_GPIO_Init+0x188>
 8001678:	f504 6480 	add.w	r4, r4, #1024	@ 0x400
 800167c:	42a0      	cmp	r0, r4
 800167e:	d03b      	beq.n	80016f8 <HAL_GPIO_Init+0x18c>
 8001680:	f504 6480 	add.w	r4, r4, #1024	@ 0x400
 8001684:	42a0      	cmp	r0, r4
 8001686:	d039      	beq.n	80016fc <HAL_GPIO_Init+0x190>
 8001688:	f504 6480 	add.w	r4, r4, #1024	@ 0x400
 800168c:	42a0      	cmp	r0, r4
 800168e:	d037      	beq.n	8001700 <HAL_GPIO_Init+0x194>
 8001690:	f504 6480 	add.w	r4, r4, #1024	@ 0x400
 8001694:	42a0      	cmp	r0, r4
 8001696:	bf14      	ite	ne
 8001698:	2407      	movne	r4, #7
 800169a:	2406      	moveq	r4, #6
 800169c:	fa04 f40c 	lsl.w	r4, r4, ip
 80016a0:	ea44 040e 	orr.w	r4, r4, lr
 80016a4:	60bc      	str	r4, [r7, #8]
 80016a6:	6894      	ldr	r4, [r2, #8]
 80016a8:	43f7      	mvns	r7, r6
 80016aa:	f415 1f80 	tst.w	r5, #1048576	@ 0x100000
 80016ae:	bf0c      	ite	eq
 80016b0:	403c      	andeq	r4, r7
 80016b2:	4334      	orrne	r4, r6
 80016b4:	6094      	str	r4, [r2, #8]
 80016b6:	68d4      	ldr	r4, [r2, #12]
 80016b8:	f415 1f00 	tst.w	r5, #2097152	@ 0x200000
 80016bc:	bf0c      	ite	eq
 80016be:	403c      	andeq	r4, r7
 80016c0:	4334      	orrne	r4, r6
 80016c2:	60d4      	str	r4, [r2, #12]
 80016c4:	6854      	ldr	r4, [r2, #4]
 80016c6:	f415 3f00 	tst.w	r5, #131072	@ 0x20000
 80016ca:	bf0c      	ite	eq
 80016cc:	403c      	andeq	r4, r7
 80016ce:	4334      	orrne	r4, r6
 80016d0:	6054      	str	r4, [r2, #4]
 80016d2:	6814      	ldr	r4, [r2, #0]
 80016d4:	03ed      	lsls	r5, r5, #15
 80016d6:	bf54      	ite	pl
 80016d8:	403c      	andpl	r4, r7
 80016da:	4334      	orrmi	r4, r6
 80016dc:	6014      	str	r4, [r2, #0]
 80016de:	3301      	adds	r3, #1
 80016e0:	2b10      	cmp	r3, #16
 80016e2:	f47f af49 	bne.w	8001578 <HAL_GPIO_Init+0xc>
 80016e6:	b003      	add	sp, #12
 80016e8:	e8bd 8ff0 	ldmia.w	sp!, {r4, r5, r6, r7, r8, r9, sl, fp, pc}
 80016ec:	2400      	movs	r4, #0
 80016ee:	e7d5      	b.n	800169c <HAL_GPIO_Init+0x130>
 80016f0:	2401      	movs	r4, #1
 80016f2:	e7d3      	b.n	800169c <HAL_GPIO_Init+0x130>
 80016f4:	2402      	movs	r4, #2
 80016f6:	e7d1      	b.n	800169c <HAL_GPIO_Init+0x130>
 80016f8:	2403      	movs	r4, #3
 80016fa:	e7cf      	b.n	800169c <HAL_GPIO_Init+0x130>
 80016fc:	2404      	movs	r4, #4
 80016fe:	e7cd      	b.n	800169c <HAL_GPIO_Init+0x130>
 8001700:	2405      	movs	r4, #5
 8001702:	e7cb      	b.n	800169c <HAL_GPIO_Init+0x130>
 8001704:	40013c00 	.word	0x40013c00
 8001708:	40020000 	.word	0x40020000
 800170c:	40023800 	.word	0x40023800

08001710 <HAL_GPIO_WritePin>:
 8001710:	b10a      	cbz	r2, 8001716 <HAL_GPIO_WritePin+0x6>
 8001712:	6181      	str	r1, [r0, #24]
 8001714:	4770      	bx	lr
 8001716:	0409      	lsls	r1, r1, #16
 8001718:	e7fb      	b.n	8001712 <HAL_GPIO_WritePin+0x2>

0800171a <HAL_GPIO_TogglePin>:
 800171a:	6943      	ldr	r3, [r0, #20]
 800171c:	ea01 0203 	and.w	r2, r1, r3
 8001720:	ea21 0103 	bic.w	r1, r1, r3
 8001724:	ea41 4102 	orr.w	r1, r1, r2, lsl #16
 8001728:	6181      	str	r1, [r0, #24]
 800172a:	4770      	bx	lr

0800172c <HAL_RCC_ClockConfig>:
 800172c:	e92d 41f0 	stmdb	sp!, {r4, r5, r6, r7, r8, lr}
 8001730:	460d      	mov	r5, r1
 8001732:	4604      	mov	r4, r0
 8001734:	b910      	cbnz	r0, 800173c <HAL_RCC_ClockConfig+0x10>
 8001736:	2001      	movs	r0, #1
 8001738:	e8bd 81f0 	ldmia.w	sp!, {r4, r5, r6, r7, r8, pc}
 800173c:	4b43      	ldr	r3, [pc, #268]	@ (800184c <HAL_RCC_ClockConfig+0x120>)
 800173e:	681a      	ldr	r2, [r3, #0]
 8001740:	f002 020f 	and.w	r2, r2, #15
 8001744:	428a      	cmp	r2, r1
 8001746:	d328      	bcc.n	800179a <HAL_RCC_ClockConfig+0x6e>
 8001748:	6821      	ldr	r1, [r4, #0]
 800174a:	078f      	lsls	r7, r1, #30
 800174c:	d42d      	bmi.n	80017aa <HAL_RCC_ClockConfig+0x7e>
 800174e:	07c8      	lsls	r0, r1, #31
 8001750:	d440      	bmi.n	80017d4 <HAL_RCC_ClockConfig+0xa8>
 8001752:	4b3e      	ldr	r3, [pc, #248]	@ (800184c <HAL_RCC_ClockConfig+0x120>)
 8001754:	681a      	ldr	r2, [r3, #0]
 8001756:	f002 020f 	and.w	r2, r2, #15
 800175a:	42aa      	cmp	r2, r5
 800175c:	d865      	bhi.n	800182a <HAL_RCC_ClockConfig+0xfe>
 800175e:	6822      	ldr	r2, [r4, #0]
 8001760:	0751      	lsls	r1, r2, #29
 8001762:	d46b      	bmi.n	800183c <HAL_RCC_ClockConfig+0x110>
 8001764:	0713      	lsls	r3, r2, #28
 8001766:	d507      	bpl.n	8001778 <HAL_RCC_ClockConfig+0x4c>
 8001768:	4a39      	ldr	r2, [pc, #228]	@ (8001850 <HAL_RCC_ClockConfig+0x124>)
 800176a:	6921      	ldr	r1, [r4, #16]
 800176c:	6893      	ldr	r3, [r2, #8]
 800176e:	f423 4360 	bic.w	r3, r3, #57344	@ 0xe000
 8001772:	ea43 03c1 	orr.w	r3, r3, r1, lsl #3
 8001776:	6093      	str	r3, [r2, #8]
 8001778:	f000 f892 	bl	80018a0 <HAL_RCC_GetSysClockFreq>
 800177c:	4b34      	ldr	r3, [pc, #208]	@ (8001850 <HAL_RCC_ClockConfig+0x124>)
 800177e:	4a35      	ldr	r2, [pc, #212]	@ (8001854 <HAL_RCC_ClockConfig+0x128>)
 8001780:	689b      	ldr	r3, [r3, #8]
 8001782:	f3c3 1303 	ubfx	r3, r3, #4, #4
 8001786:	5cd3      	ldrb	r3, [r2, r3]
 8001788:	40d8      	lsrs	r0, r3
 800178a:	4b33      	ldr	r3, [pc, #204]	@ (8001858 <HAL_RCC_ClockConfig+0x12c>)
 800178c:	6018      	str	r0, [r3, #0]
 800178e:	4b33      	ldr	r3, [pc, #204]	@ (800185c <HAL_RCC_ClockConfig+0x130>)
 8001790:	6818      	ldr	r0, [r3, #0]
 8001792:	f7ff fbd9 	bl	8000f48 <HAL_InitTick>
 8001796:	2000      	movs	r0, #0
 8001798:	e7ce      	b.n	8001738 <HAL_RCC_ClockConfig+0xc>
 800179a:	b2ca      	uxtb	r2, r1
 800179c:	701a      	strb	r2, [r3, #0]
 800179e:	681b      	ldr	r3, [r3, #0]
 80017a0:	f003 030f 	and.w	r3, r3, #15
 80017a4:	428b      	cmp	r3, r1
 80017a6:	d1c6      	bne.n	8001736 <HAL_RCC_ClockConfig+0xa>
 80017a8:	e7ce      	b.n	8001748 <HAL_RCC_ClockConfig+0x1c>
 80017aa:	4b29      	ldr	r3, [pc, #164]	@ (8001850 <HAL_RCC_ClockConfig+0x124>)
 80017ac:	f011 0f04 	tst.w	r1, #4
 80017b0:	bf1e      	ittt	ne
 80017b2:	689a      	ldrne	r2, [r3, #8]
 80017b4:	f442 52e0 	orrne.w	r2, r2, #7168	@ 0x1c00
 80017b8:	609a      	strne	r2, [r3, #8]
 80017ba:	070e      	lsls	r6, r1, #28
 80017bc:	bf42      	ittt	mi
 80017be:	689a      	ldrmi	r2, [r3, #8]
 80017c0:	f442 4260 	orrmi.w	r2, r2, #57344	@ 0xe000
 80017c4:	609a      	strmi	r2, [r3, #8]
 80017c6:	689a      	ldr	r2, [r3, #8]
 80017c8:	68a0      	ldr	r0, [r4, #8]
 80017ca:	f022 02f0 	bic.w	r2, r2, #240	@ 0xf0
 80017ce:	4302      	orrs	r2, r0
 80017d0:	609a      	str	r2, [r3, #8]
 80017d2:	e7bc      	b.n	800174e <HAL_RCC_ClockConfig+0x22>
 80017d4:	6862      	ldr	r2, [r4, #4]
 80017d6:	4b1e      	ldr	r3, [pc, #120]	@ (8001850 <HAL_RCC_ClockConfig+0x124>)
 80017d8:	2a01      	cmp	r2, #1
 80017da:	d11c      	bne.n	8001816 <HAL_RCC_ClockConfig+0xea>
 80017dc:	681b      	ldr	r3, [r3, #0]
 80017de:	f413 3f00 	tst.w	r3, #131072	@ 0x20000
 80017e2:	d0a8      	beq.n	8001736 <HAL_RCC_ClockConfig+0xa>
 80017e4:	4e1a      	ldr	r6, [pc, #104]	@ (8001850 <HAL_RCC_ClockConfig+0x124>)
 80017e6:	68b3      	ldr	r3, [r6, #8]
 80017e8:	f023 0303 	bic.w	r3, r3, #3
 80017ec:	4313      	orrs	r3, r2
 80017ee:	60b3      	str	r3, [r6, #8]
 80017f0:	f7ff fbf4 	bl	8000fdc <HAL_GetTick>
 80017f4:	f241 3888 	movw	r8, #5000	@ 0x1388
 80017f8:	4607      	mov	r7, r0
 80017fa:	68b3      	ldr	r3, [r6, #8]
 80017fc:	6862      	ldr	r2, [r4, #4]
 80017fe:	f003 030c 	and.w	r3, r3, #12
 8001802:	ebb3 0f82 	cmp.w	r3, r2, lsl #2
 8001806:	d0a4      	beq.n	8001752 <HAL_RCC_ClockConfig+0x26>
 8001808:	f7ff fbe8 	bl	8000fdc <HAL_GetTick>
 800180c:	1bc0      	subs	r0, r0, r7
 800180e:	4540      	cmp	r0, r8
 8001810:	d9f3      	bls.n	80017fa <HAL_RCC_ClockConfig+0xce>
 8001812:	2003      	movs	r0, #3
 8001814:	e790      	b.n	8001738 <HAL_RCC_ClockConfig+0xc>
 8001816:	1e91      	subs	r1, r2, #2
 8001818:	2901      	cmp	r1, #1
 800181a:	681b      	ldr	r3, [r3, #0]
 800181c:	d802      	bhi.n	8001824 <HAL_RCC_ClockConfig+0xf8>
 800181e:	f013 7f00 	tst.w	r3, #33554432	@ 0x2000000
 8001822:	e7de      	b.n	80017e2 <HAL_RCC_ClockConfig+0xb6>
 8001824:	f013 0f02 	tst.w	r3, #2
 8001828:	e7db      	b.n	80017e2 <HAL_RCC_ClockConfig+0xb6>
 800182a:	b2ea      	uxtb	r2, r5
 800182c:	701a      	strb	r2, [r3, #0]
 800182e:	681b      	ldr	r3, [r3, #0]
 8001830:	f003 030f 	and.w	r3, r3, #15
 8001834:	42ab      	cmp	r3, r5
 8001836:	f47f af7e 	bne.w	8001736 <HAL_RCC_ClockConfig+0xa>
 800183a:	e790      	b.n	800175e <HAL_RCC_ClockConfig+0x32>
 800183c:	4904      	ldr	r1, [pc, #16]	@ (8001850 <HAL_RCC_ClockConfig+0x124>)
 800183e:	68e0      	ldr	r0, [r4, #12]
 8001840:	688b      	ldr	r3, [r1, #8]
 8001842:	f423 53e0 	bic.w	r3, r3, #7168	@ 0x1c00
 8001846:	4303      	orrs	r3, r0
 8001848:	608b      	str	r3, [r1, #8]
 800184a:	e78b      	b.n	8001764 <HAL_RCC_ClockConfig+0x38>
 800184c:	40023c00 	.word	0x40023c00
 8001850:	40023800 	.word	0x40023800
 8001854:	08002de2 	.word	0x08002de2
 8001858:	20000008 	.word	0x20000008
 800185c:	20000010 	.word	0x20000010

08001860 <HAL_RCC_GetPCLK1Freq>:
 8001860:	4b04      	ldr	r3, [pc, #16]	@ (8001874 <HAL_RCC_GetPCLK1Freq+0x14>)
 8001862:	4a05      	ldr	r2, [pc, #20]	@ (8001878 <HAL_RCC_GetPCLK1Freq+0x18>)
 8001864:	689b      	ldr	r3, [r3, #8]
 8001866:	f3c3 2382 	ubfx	r3, r3, #10, #3
 800186a:	5cd3      	ldrb	r3, [r2, r3]
 800186c:	4a03      	ldr	r2, [pc, #12]	@ (800187c <HAL_RCC_GetPCLK1Freq+0x1c>)
 800186e:	6810      	ldr	r0, [r2, #0]
 8001870:	40d8      	lsrs	r0, r3
 8001872:	4770      	bx	lr
 8001874:	40023800 	.word	0x40023800
 8001878:	08002dda 	.word	0x08002dda
 800187c:	20000008 	.word	0x20000008

08001880 <HAL_RCC_GetPCLK2Freq>:
 8001880:	4b04      	ldr	r3, [pc, #16]	@ (8001894 <HAL_RCC_GetPCLK2Freq+0x14>)
 8001882:	4a05      	ldr	r2, [pc, #20]	@ (8001898 <HAL_RCC_GetPCLK2Freq+0x18>)
 8001884:	689b      	ldr	r3, [r3, #8]
 8001886:	f3c3 3342 	ubfx	r3, r3, #13, #3
 800188a:	5cd3      	ldrb	r3, [r2, r3]
 800188c:	4a03      	ldr	r2, [pc, #12]	@ (800189c <HAL_RCC_GetPCLK2Freq+0x1c>)
 800188e:	6810      	ldr	r0, [r2, #0]
 8001890:	40d8      	lsrs	r0, r3
 8001892:	4770      	bx	lr
 8001894:	40023800 	.word	0x40023800
 8001898:	08002dda 	.word	0x08002dda
 800189c:	20000008 	.word	0x20000008

080018a0 <HAL_RCC_GetSysClockFreq>:
 80018a0:	4920      	ldr	r1, [pc, #128]	@ (8001924 <HAL_RCC_GetSysClockFreq+0x84>)
 80018a2:	b508      	push	{r3, lr}
 80018a4:	688b      	ldr	r3, [r1, #8]
 80018a6:	f003 030c 	and.w	r3, r3, #12
 80018aa:	2b08      	cmp	r3, #8
 80018ac:	d007      	beq.n	80018be <HAL_RCC_GetSysClockFreq+0x1e>
 80018ae:	2b0c      	cmp	r3, #12
 80018b0:	d020      	beq.n	80018f4 <HAL_RCC_GetSysClockFreq+0x54>
 80018b2:	481d      	ldr	r0, [pc, #116]	@ (8001928 <HAL_RCC_GetSysClockFreq+0x88>)
 80018b4:	4a1d      	ldr	r2, [pc, #116]	@ (800192c <HAL_RCC_GetSysClockFreq+0x8c>)
 80018b6:	2b04      	cmp	r3, #4
 80018b8:	bf18      	it	ne
 80018ba:	4610      	movne	r0, r2
 80018bc:	bd08      	pop	{r3, pc}
 80018be:	684a      	ldr	r2, [r1, #4]
 80018c0:	684b      	ldr	r3, [r1, #4]
 80018c2:	6849      	ldr	r1, [r1, #4]
 80018c4:	f413 0380 	ands.w	r3, r3, #4194304	@ 0x400000
 80018c8:	bf14      	ite	ne
 80018ca:	4817      	ldrne	r0, [pc, #92]	@ (8001928 <HAL_RCC_GetSysClockFreq+0x88>)
 80018cc:	4817      	ldreq	r0, [pc, #92]	@ (800192c <HAL_RCC_GetSysClockFreq+0x8c>)
 80018ce:	f3c1 1188 	ubfx	r1, r1, #6, #9
 80018d2:	bf18      	it	ne
 80018d4:	2300      	movne	r3, #0
 80018d6:	f002 023f 	and.w	r2, r2, #63	@ 0x3f
 80018da:	fba1 0100 	umull	r0, r1, r1, r0
 80018de:	f7fe fcef 	bl	80002c0 <__aeabi_uldivmod>
 80018e2:	4b10      	ldr	r3, [pc, #64]	@ (8001924 <HAL_RCC_GetSysClockFreq+0x84>)
 80018e4:	685b      	ldr	r3, [r3, #4]
 80018e6:	f3c3 4301 	ubfx	r3, r3, #16, #2
 80018ea:	3301      	adds	r3, #1
 80018ec:	005b      	lsls	r3, r3, #1
 80018ee:	fbb0 f0f3 	udiv	r0, r0, r3
 80018f2:	e7e3      	b.n	80018bc <HAL_RCC_GetSysClockFreq+0x1c>
 80018f4:	684a      	ldr	r2, [r1, #4]
 80018f6:	684b      	ldr	r3, [r1, #4]
 80018f8:	6849      	ldr	r1, [r1, #4]
 80018fa:	f413 0380 	ands.w	r3, r3, #4194304	@ 0x400000
 80018fe:	bf14      	ite	ne
 8001900:	4809      	ldrne	r0, [pc, #36]	@ (8001928 <HAL_RCC_GetSysClockFreq+0x88>)
 8001902:	480a      	ldreq	r0, [pc, #40]	@ (800192c <HAL_RCC_GetSysClockFreq+0x8c>)
 8001904:	f3c1 1188 	ubfx	r1, r1, #6, #9
 8001908:	bf18      	it	ne
 800190a:	2300      	movne	r3, #0
 800190c:	f002 023f 	and.w	r2, r2, #63	@ 0x3f
 8001910:	fba1 0100 	umull	r0, r1, r1, r0
 8001914:	f7fe fcd4 	bl	80002c0 <__aeabi_uldivmod>
 8001918:	4b02      	ldr	r3, [pc, #8]	@ (8001924 <HAL_RCC_GetSysClockFreq+0x84>)
 800191a:	685b      	ldr	r3, [r3, #4]
 800191c:	f3c3 7302 	ubfx	r3, r3, #28, #3
 8001920:	e7e5      	b.n	80018ee <HAL_RCC_GetSysClockFreq+0x4e>
 8001922:	bf00      	nop
 8001924:	40023800 	.word	0x40023800
 8001928:	007a1200 	.word	0x007a1200
 800192c:	00f42400 	.word	0x00f42400

08001930 <HAL_RCC_OscConfig>:
 8001930:	e92d 41f3 	stmdb	sp!, {r0, r1, r4, r5, r6, r7, r8, lr}
 8001934:	4604      	mov	r4, r0
 8001936:	2800      	cmp	r0, #0
 8001938:	d031      	beq.n	800199e <HAL_RCC_OscConfig+0x6e>
 800193a:	6803      	ldr	r3, [r0, #0]
 800193c:	07df      	lsls	r7, r3, #31
 800193e:	d410      	bmi.n	8001962 <HAL_RCC_OscConfig+0x32>
 8001940:	6823      	ldr	r3, [r4, #0]
 8001942:	079e      	lsls	r6, r3, #30
 8001944:	d467      	bmi.n	8001a16 <HAL_RCC_OscConfig+0xe6>
 8001946:	6823      	ldr	r3, [r4, #0]
 8001948:	0719      	lsls	r1, r3, #28
 800194a:	f100 80b2 	bmi.w	8001ab2 <HAL_RCC_OscConfig+0x182>
 800194e:	6823      	ldr	r3, [r4, #0]
 8001950:	075a      	lsls	r2, r3, #29
 8001952:	f100 80d2 	bmi.w	8001afa <HAL_RCC_OscConfig+0x1ca>
 8001956:	69a3      	ldr	r3, [r4, #24]
 8001958:	2b00      	cmp	r3, #0
 800195a:	f040 8139 	bne.w	8001bd0 <HAL_RCC_OscConfig+0x2a0>
 800195e:	2000      	movs	r0, #0
 8001960:	e034      	b.n	80019cc <HAL_RCC_OscConfig+0x9c>
 8001962:	4b98      	ldr	r3, [pc, #608]	@ (8001bc4 <HAL_RCC_OscConfig+0x294>)
 8001964:	689a      	ldr	r2, [r3, #8]
 8001966:	f002 020c 	and.w	r2, r2, #12
 800196a:	2a04      	cmp	r2, #4
 800196c:	d010      	beq.n	8001990 <HAL_RCC_OscConfig+0x60>
 800196e:	689a      	ldr	r2, [r3, #8]
 8001970:	f002 020c 	and.w	r2, r2, #12
 8001974:	2a08      	cmp	r2, #8
 8001976:	d102      	bne.n	800197e <HAL_RCC_OscConfig+0x4e>
 8001978:	685b      	ldr	r3, [r3, #4]
 800197a:	025d      	lsls	r5, r3, #9
 800197c:	d408      	bmi.n	8001990 <HAL_RCC_OscConfig+0x60>
 800197e:	4b91      	ldr	r3, [pc, #580]	@ (8001bc4 <HAL_RCC_OscConfig+0x294>)
 8001980:	689a      	ldr	r2, [r3, #8]
 8001982:	f002 020c 	and.w	r2, r2, #12
 8001986:	2a0c      	cmp	r2, #12
 8001988:	d10b      	bne.n	80019a2 <HAL_RCC_OscConfig+0x72>
 800198a:	685a      	ldr	r2, [r3, #4]
 800198c:	0251      	lsls	r1, r2, #9
 800198e:	d508      	bpl.n	80019a2 <HAL_RCC_OscConfig+0x72>
 8001990:	4b8c      	ldr	r3, [pc, #560]	@ (8001bc4 <HAL_RCC_OscConfig+0x294>)
 8001992:	681b      	ldr	r3, [r3, #0]
 8001994:	039a      	lsls	r2, r3, #14
 8001996:	d5d3      	bpl.n	8001940 <HAL_RCC_OscConfig+0x10>
 8001998:	6863      	ldr	r3, [r4, #4]
 800199a:	2b00      	cmp	r3, #0
 800199c:	d1d0      	bne.n	8001940 <HAL_RCC_OscConfig+0x10>
 800199e:	2001      	movs	r0, #1
 80019a0:	e014      	b.n	80019cc <HAL_RCC_OscConfig+0x9c>
 80019a2:	6862      	ldr	r2, [r4, #4]
 80019a4:	f5b2 3f80 	cmp.w	r2, #65536	@ 0x10000
 80019a8:	d113      	bne.n	80019d2 <HAL_RCC_OscConfig+0xa2>
 80019aa:	681a      	ldr	r2, [r3, #0]
 80019ac:	f442 3280 	orr.w	r2, r2, #65536	@ 0x10000
 80019b0:	601a      	str	r2, [r3, #0]
 80019b2:	f7ff fb13 	bl	8000fdc <HAL_GetTick>
 80019b6:	4e83      	ldr	r6, [pc, #524]	@ (8001bc4 <HAL_RCC_OscConfig+0x294>)
 80019b8:	4605      	mov	r5, r0
 80019ba:	6833      	ldr	r3, [r6, #0]
 80019bc:	039b      	lsls	r3, r3, #14
 80019be:	d4bf      	bmi.n	8001940 <HAL_RCC_OscConfig+0x10>
 80019c0:	f7ff fb0c 	bl	8000fdc <HAL_GetTick>
 80019c4:	1b40      	subs	r0, r0, r5
 80019c6:	2864      	cmp	r0, #100	@ 0x64
 80019c8:	d9f7      	bls.n	80019ba <HAL_RCC_OscConfig+0x8a>
 80019ca:	2003      	movs	r0, #3
 80019cc:	b002      	add	sp, #8
 80019ce:	e8bd 81f0 	ldmia.w	sp!, {r4, r5, r6, r7, r8, pc}
 80019d2:	4d7c      	ldr	r5, [pc, #496]	@ (8001bc4 <HAL_RCC_OscConfig+0x294>)
 80019d4:	f5b2 2fa0 	cmp.w	r2, #327680	@ 0x50000
 80019d8:	682b      	ldr	r3, [r5, #0]
 80019da:	d107      	bne.n	80019ec <HAL_RCC_OscConfig+0xbc>
 80019dc:	f443 2380 	orr.w	r3, r3, #262144	@ 0x40000
 80019e0:	602b      	str	r3, [r5, #0]
 80019e2:	682b      	ldr	r3, [r5, #0]
 80019e4:	f443 3380 	orr.w	r3, r3, #65536	@ 0x10000
 80019e8:	602b      	str	r3, [r5, #0]
 80019ea:	e7e2      	b.n	80019b2 <HAL_RCC_OscConfig+0x82>
 80019ec:	f423 3380 	bic.w	r3, r3, #65536	@ 0x10000
 80019f0:	602b      	str	r3, [r5, #0]
 80019f2:	682b      	ldr	r3, [r5, #0]
 80019f4:	f423 2380 	bic.w	r3, r3, #262144	@ 0x40000
 80019f8:	602b      	str	r3, [r5, #0]
 80019fa:	2a00      	cmp	r2, #0
 80019fc:	d1d9      	bne.n	80019b2 <HAL_RCC_OscConfig+0x82>
 80019fe:	f7ff faed 	bl	8000fdc <HAL_GetTick>
 8001a02:	4606      	mov	r6, r0
 8001a04:	682b      	ldr	r3, [r5, #0]
 8001a06:	039f      	lsls	r7, r3, #14
 8001a08:	d59a      	bpl.n	8001940 <HAL_RCC_OscConfig+0x10>
 8001a0a:	f7ff fae7 	bl	8000fdc <HAL_GetTick>
 8001a0e:	1b80      	subs	r0, r0, r6
 8001a10:	2864      	cmp	r0, #100	@ 0x64
 8001a12:	d9f7      	bls.n	8001a04 <HAL_RCC_OscConfig+0xd4>
 8001a14:	e7d9      	b.n	80019ca <HAL_RCC_OscConfig+0x9a>
 8001a16:	4b6b      	ldr	r3, [pc, #428]	@ (8001bc4 <HAL_RCC_OscConfig+0x294>)
 8001a18:	689a      	ldr	r2, [r3, #8]
 8001a1a:	f012 0f0c 	tst.w	r2, #12
 8001a1e:	d010      	beq.n	8001a42 <HAL_RCC_OscConfig+0x112>
 8001a20:	689a      	ldr	r2, [r3, #8]
 8001a22:	f002 020c 	and.w	r2, r2, #12
 8001a26:	2a08      	cmp	r2, #8
 8001a28:	d102      	bne.n	8001a30 <HAL_RCC_OscConfig+0x100>
 8001a2a:	685b      	ldr	r3, [r3, #4]
 8001a2c:	025e      	lsls	r6, r3, #9
 8001a2e:	d508      	bpl.n	8001a42 <HAL_RCC_OscConfig+0x112>
 8001a30:	4a64      	ldr	r2, [pc, #400]	@ (8001bc4 <HAL_RCC_OscConfig+0x294>)
 8001a32:	6893      	ldr	r3, [r2, #8]
 8001a34:	f003 030c 	and.w	r3, r3, #12
 8001a38:	2b0c      	cmp	r3, #12
 8001a3a:	d111      	bne.n	8001a60 <HAL_RCC_OscConfig+0x130>
 8001a3c:	6853      	ldr	r3, [r2, #4]
 8001a3e:	025d      	lsls	r5, r3, #9
 8001a40:	d40e      	bmi.n	8001a60 <HAL_RCC_OscConfig+0x130>
 8001a42:	4a60      	ldr	r2, [pc, #384]	@ (8001bc4 <HAL_RCC_OscConfig+0x294>)
 8001a44:	6813      	ldr	r3, [r2, #0]
 8001a46:	0799      	lsls	r1, r3, #30
 8001a48:	d502      	bpl.n	8001a50 <HAL_RCC_OscConfig+0x120>
 8001a4a:	68e3      	ldr	r3, [r4, #12]
 8001a4c:	2b01      	cmp	r3, #1
 8001a4e:	d1a6      	bne.n	800199e <HAL_RCC_OscConfig+0x6e>
 8001a50:	6813      	ldr	r3, [r2, #0]
 8001a52:	6921      	ldr	r1, [r4, #16]
 8001a54:	f023 03f8 	bic.w	r3, r3, #248	@ 0xf8
 8001a58:	ea43 03c1 	orr.w	r3, r3, r1, lsl #3
 8001a5c:	6013      	str	r3, [r2, #0]
 8001a5e:	e772      	b.n	8001946 <HAL_RCC_OscConfig+0x16>
 8001a60:	68e2      	ldr	r2, [r4, #12]
 8001a62:	4b59      	ldr	r3, [pc, #356]	@ (8001bc8 <HAL_RCC_OscConfig+0x298>)
 8001a64:	b1b2      	cbz	r2, 8001a94 <HAL_RCC_OscConfig+0x164>
 8001a66:	2201      	movs	r2, #1
 8001a68:	601a      	str	r2, [r3, #0]
 8001a6a:	f7ff fab7 	bl	8000fdc <HAL_GetTick>
 8001a6e:	4d55      	ldr	r5, [pc, #340]	@ (8001bc4 <HAL_RCC_OscConfig+0x294>)
 8001a70:	4606      	mov	r6, r0
 8001a72:	682b      	ldr	r3, [r5, #0]
 8001a74:	079b      	lsls	r3, r3, #30
 8001a76:	d507      	bpl.n	8001a88 <HAL_RCC_OscConfig+0x158>
 8001a78:	682b      	ldr	r3, [r5, #0]
 8001a7a:	6922      	ldr	r2, [r4, #16]
 8001a7c:	f023 03f8 	bic.w	r3, r3, #248	@ 0xf8
 8001a80:	ea43 03c2 	orr.w	r3, r3, r2, lsl #3
 8001a84:	602b      	str	r3, [r5, #0]
 8001a86:	e75e      	b.n	8001946 <HAL_RCC_OscConfig+0x16>
 8001a88:	f7ff faa8 	bl	8000fdc <HAL_GetTick>
 8001a8c:	1b80      	subs	r0, r0, r6
 8001a8e:	2802      	cmp	r0, #2
 8001a90:	d9ef      	bls.n	8001a72 <HAL_RCC_OscConfig+0x142>
 8001a92:	e79a      	b.n	80019ca <HAL_RCC_OscConfig+0x9a>
 8001a94:	601a      	str	r2, [r3, #0]
 8001a96:	f7ff faa1 	bl	8000fdc <HAL_GetTick>
 8001a9a:	4e4a      	ldr	r6, [pc, #296]	@ (8001bc4 <HAL_RCC_OscConfig+0x294>)
 8001a9c:	4605      	mov	r5, r0
 8001a9e:	6833      	ldr	r3, [r6, #0]
 8001aa0:	079f      	lsls	r7, r3, #30
 8001aa2:	f57f af50 	bpl.w	8001946 <HAL_RCC_OscConfig+0x16>
 8001aa6:	f7ff fa99 	bl	8000fdc <HAL_GetTick>
 8001aaa:	1b40      	subs	r0, r0, r5
 8001aac:	2802      	cmp	r0, #2
 8001aae:	d9f6      	bls.n	8001a9e <HAL_RCC_OscConfig+0x16e>
 8001ab0:	e78b      	b.n	80019ca <HAL_RCC_OscConfig+0x9a>
 8001ab2:	6962      	ldr	r2, [r4, #20]
 8001ab4:	4b44      	ldr	r3, [pc, #272]	@ (8001bc8 <HAL_RCC_OscConfig+0x298>)
 8001ab6:	b182      	cbz	r2, 8001ada <HAL_RCC_OscConfig+0x1aa>
 8001ab8:	2201      	movs	r2, #1
 8001aba:	f8c3 2e80 	str.w	r2, [r3, #3712]	@ 0xe80
 8001abe:	f7ff fa8d 	bl	8000fdc <HAL_GetTick>
 8001ac2:	4e40      	ldr	r6, [pc, #256]	@ (8001bc4 <HAL_RCC_OscConfig+0x294>)
 8001ac4:	4605      	mov	r5, r0
 8001ac6:	6f73      	ldr	r3, [r6, #116]	@ 0x74
 8001ac8:	079b      	lsls	r3, r3, #30
 8001aca:	f53f af40 	bmi.w	800194e <HAL_RCC_OscConfig+0x1e>
 8001ace:	f7ff fa85 	bl	8000fdc <HAL_GetTick>
 8001ad2:	1b40      	subs	r0, r0, r5
 8001ad4:	2802      	cmp	r0, #2
 8001ad6:	d9f6      	bls.n	8001ac6 <HAL_RCC_OscConfig+0x196>
 8001ad8:	e777      	b.n	80019ca <HAL_RCC_OscConfig+0x9a>
 8001ada:	f8c3 2e80 	str.w	r2, [r3, #3712]	@ 0xe80
 8001ade:	f7ff fa7d 	bl	8000fdc <HAL_GetTick>
 8001ae2:	4e38      	ldr	r6, [pc, #224]	@ (8001bc4 <HAL_RCC_OscConfig+0x294>)
 8001ae4:	4605      	mov	r5, r0
 8001ae6:	6f73      	ldr	r3, [r6, #116]	@ 0x74
 8001ae8:	079f      	lsls	r7, r3, #30
 8001aea:	f57f af30 	bpl.w	800194e <HAL_RCC_OscConfig+0x1e>
 8001aee:	f7ff fa75 	bl	8000fdc <HAL_GetTick>
 8001af2:	1b40      	subs	r0, r0, r5
 8001af4:	2802      	cmp	r0, #2
 8001af6:	d9f6      	bls.n	8001ae6 <HAL_RCC_OscConfig+0x1b6>
 8001af8:	e767      	b.n	80019ca <HAL_RCC_OscConfig+0x9a>
 8001afa:	4b32      	ldr	r3, [pc, #200]	@ (8001bc4 <HAL_RCC_OscConfig+0x294>)
 8001afc:	6c1a      	ldr	r2, [r3, #64]	@ 0x40
 8001afe:	f012 5280 	ands.w	r2, r2, #268435456	@ 0x10000000
 8001b02:	d128      	bne.n	8001b56 <HAL_RCC_OscConfig+0x226>
 8001b04:	9201      	str	r2, [sp, #4]
 8001b06:	6c1a      	ldr	r2, [r3, #64]	@ 0x40
 8001b08:	f042 5280 	orr.w	r2, r2, #268435456	@ 0x10000000
 8001b0c:	641a      	str	r2, [r3, #64]	@ 0x40
 8001b0e:	6c1b      	ldr	r3, [r3, #64]	@ 0x40
 8001b10:	f003 5380 	and.w	r3, r3, #268435456	@ 0x10000000
 8001b14:	9301      	str	r3, [sp, #4]
 8001b16:	9b01      	ldr	r3, [sp, #4]
 8001b18:	2701      	movs	r7, #1
 8001b1a:	4d2c      	ldr	r5, [pc, #176]	@ (8001bcc <HAL_RCC_OscConfig+0x29c>)
 8001b1c:	682b      	ldr	r3, [r5, #0]
 8001b1e:	05d8      	lsls	r0, r3, #23
 8001b20:	d51b      	bpl.n	8001b5a <HAL_RCC_OscConfig+0x22a>
 8001b22:	68a3      	ldr	r3, [r4, #8]
 8001b24:	4d27      	ldr	r5, [pc, #156]	@ (8001bc4 <HAL_RCC_OscConfig+0x294>)
 8001b26:	2b01      	cmp	r3, #1
 8001b28:	d127      	bne.n	8001b7a <HAL_RCC_OscConfig+0x24a>
 8001b2a:	6f2b      	ldr	r3, [r5, #112]	@ 0x70
 8001b2c:	f043 0301 	orr.w	r3, r3, #1
 8001b30:	672b      	str	r3, [r5, #112]	@ 0x70
 8001b32:	f7ff fa53 	bl	8000fdc <HAL_GetTick>
 8001b36:	4e23      	ldr	r6, [pc, #140]	@ (8001bc4 <HAL_RCC_OscConfig+0x294>)
 8001b38:	4605      	mov	r5, r0
 8001b3a:	f241 3888 	movw	r8, #5000	@ 0x1388
 8001b3e:	6f33      	ldr	r3, [r6, #112]	@ 0x70
 8001b40:	079a      	lsls	r2, r3, #30
 8001b42:	d539      	bpl.n	8001bb8 <HAL_RCC_OscConfig+0x288>
 8001b44:	2f00      	cmp	r7, #0
 8001b46:	f43f af06 	beq.w	8001956 <HAL_RCC_OscConfig+0x26>
 8001b4a:	4a1e      	ldr	r2, [pc, #120]	@ (8001bc4 <HAL_RCC_OscConfig+0x294>)
 8001b4c:	6c13      	ldr	r3, [r2, #64]	@ 0x40
 8001b4e:	f023 5380 	bic.w	r3, r3, #268435456	@ 0x10000000
 8001b52:	6413      	str	r3, [r2, #64]	@ 0x40
 8001b54:	e6ff      	b.n	8001956 <HAL_RCC_OscConfig+0x26>
 8001b56:	2700      	movs	r7, #0
 8001b58:	e7df      	b.n	8001b1a <HAL_RCC_OscConfig+0x1ea>
 8001b5a:	682b      	ldr	r3, [r5, #0]
 8001b5c:	f443 7380 	orr.w	r3, r3, #256	@ 0x100
 8001b60:	602b      	str	r3, [r5, #0]
 8001b62:	f7ff fa3b 	bl	8000fdc <HAL_GetTick>
 8001b66:	4606      	mov	r6, r0
 8001b68:	682b      	ldr	r3, [r5, #0]
 8001b6a:	05d9      	lsls	r1, r3, #23
 8001b6c:	d4d9      	bmi.n	8001b22 <HAL_RCC_OscConfig+0x1f2>
 8001b6e:	f7ff fa35 	bl	8000fdc <HAL_GetTick>
 8001b72:	1b80      	subs	r0, r0, r6
 8001b74:	2802      	cmp	r0, #2
 8001b76:	d9f7      	bls.n	8001b68 <HAL_RCC_OscConfig+0x238>
 8001b78:	e727      	b.n	80019ca <HAL_RCC_OscConfig+0x9a>
 8001b7a:	2b05      	cmp	r3, #5
 8001b7c:	d104      	bne.n	8001b88 <HAL_RCC_OscConfig+0x258>
 8001b7e:	6f2b      	ldr	r3, [r5, #112]	@ 0x70
 8001b80:	f043 0304 	orr.w	r3, r3, #4
 8001b84:	672b      	str	r3, [r5, #112]	@ 0x70
 8001b86:	e7d0      	b.n	8001b2a <HAL_RCC_OscConfig+0x1fa>
 8001b88:	6f2a      	ldr	r2, [r5, #112]	@ 0x70
 8001b8a:	f022 0201 	bic.w	r2, r2, #1
 8001b8e:	672a      	str	r2, [r5, #112]	@ 0x70
 8001b90:	6f2a      	ldr	r2, [r5, #112]	@ 0x70
 8001b92:	f022 0204 	bic.w	r2, r2, #4
 8001b96:	672a      	str	r2, [r5, #112]	@ 0x70
 8001b98:	2b00      	cmp	r3, #0
 8001b9a:	d1ca      	bne.n	8001b32 <HAL_RCC_OscConfig+0x202>
 8001b9c:	f7ff fa1e 	bl	8000fdc <HAL_GetTick>
 8001ba0:	f241 3888 	movw	r8, #5000	@ 0x1388
 8001ba4:	4606      	mov	r6, r0
 8001ba6:	6f2b      	ldr	r3, [r5, #112]	@ 0x70
 8001ba8:	079b      	lsls	r3, r3, #30
 8001baa:	d5cb      	bpl.n	8001b44 <HAL_RCC_OscConfig+0x214>
 8001bac:	f7ff fa16 	bl	8000fdc <HAL_GetTick>
 8001bb0:	1b80      	subs	r0, r0, r6
 8001bb2:	4540      	cmp	r0, r8
 8001bb4:	d9f7      	bls.n	8001ba6 <HAL_RCC_OscConfig+0x276>
 8001bb6:	e708      	b.n	80019ca <HAL_RCC_OscConfig+0x9a>
 8001bb8:	f7ff fa10 	bl	8000fdc <HAL_GetTick>
 8001bbc:	1b40      	subs	r0, r0, r5
 8001bbe:	4540      	cmp	r0, r8
 8001bc0:	d9bd      	bls.n	8001b3e <HAL_RCC_OscConfig+0x20e>
 8001bc2:	e702      	b.n	80019ca <HAL_RCC_OscConfig+0x9a>
 8001bc4:	40023800 	.word	0x40023800
 8001bc8:	42470000 	.word	0x42470000
 8001bcc:	40007000 	.word	0x40007000
 8001bd0:	4d3c      	ldr	r5, [pc, #240]	@ (8001cc4 <HAL_RCC_OscConfig+0x394>)
 8001bd2:	68aa      	ldr	r2, [r5, #8]
 8001bd4:	f002 020c 	and.w	r2, r2, #12
 8001bd8:	2a08      	cmp	r2, #8
 8001bda:	d041      	beq.n	8001c60 <HAL_RCC_OscConfig+0x330>
 8001bdc:	2b02      	cmp	r3, #2
 8001bde:	4b3a      	ldr	r3, [pc, #232]	@ (8001cc8 <HAL_RCC_OscConfig+0x398>)
 8001be0:	f04f 0200 	mov.w	r2, #0
 8001be4:	661a      	str	r2, [r3, #96]	@ 0x60
 8001be6:	d12e      	bne.n	8001c46 <HAL_RCC_OscConfig+0x316>
 8001be8:	f7ff f9f8 	bl	8000fdc <HAL_GetTick>
 8001bec:	4606      	mov	r6, r0
 8001bee:	682b      	ldr	r3, [r5, #0]
 8001bf0:	0199      	lsls	r1, r3, #6
 8001bf2:	d422      	bmi.n	8001c3a <HAL_RCC_OscConfig+0x30a>
 8001bf4:	e9d4 3207 	ldrd	r3, r2, [r4, #28]
 8001bf8:	4313      	orrs	r3, r2
 8001bfa:	6a62      	ldr	r2, [r4, #36]	@ 0x24
 8001bfc:	ea43 1382 	orr.w	r3, r3, r2, lsl #6
 8001c00:	6ae2      	ldr	r2, [r4, #44]	@ 0x2c
 8001c02:	ea43 6302 	orr.w	r3, r3, r2, lsl #24
 8001c06:	6b22      	ldr	r2, [r4, #48]	@ 0x30
 8001c08:	ea43 7302 	orr.w	r3, r3, r2, lsl #28
 8001c0c:	6aa2      	ldr	r2, [r4, #40]	@ 0x28
 8001c0e:	0852      	lsrs	r2, r2, #1
 8001c10:	3a01      	subs	r2, #1
 8001c12:	ea43 4302 	orr.w	r3, r3, r2, lsl #16
 8001c16:	606b      	str	r3, [r5, #4]
 8001c18:	4b2b      	ldr	r3, [pc, #172]	@ (8001cc8 <HAL_RCC_OscConfig+0x398>)
 8001c1a:	4d2a      	ldr	r5, [pc, #168]	@ (8001cc4 <HAL_RCC_OscConfig+0x394>)
 8001c1c:	2201      	movs	r2, #1
 8001c1e:	661a      	str	r2, [r3, #96]	@ 0x60
 8001c20:	f7ff f9dc 	bl	8000fdc <HAL_GetTick>
 8001c24:	4604      	mov	r4, r0
 8001c26:	682b      	ldr	r3, [r5, #0]
 8001c28:	019a      	lsls	r2, r3, #6
 8001c2a:	f53f ae98 	bmi.w	800195e <HAL_RCC_OscConfig+0x2e>
 8001c2e:	f7ff f9d5 	bl	8000fdc <HAL_GetTick>
 8001c32:	1b00      	subs	r0, r0, r4
 8001c34:	2802      	cmp	r0, #2
 8001c36:	d9f6      	bls.n	8001c26 <HAL_RCC_OscConfig+0x2f6>
 8001c38:	e6c7      	b.n	80019ca <HAL_RCC_OscConfig+0x9a>
 8001c3a:	f7ff f9cf 	bl	8000fdc <HAL_GetTick>
 8001c3e:	1b80      	subs	r0, r0, r6
 8001c40:	2802      	cmp	r0, #2
 8001c42:	d9d4      	bls.n	8001bee <HAL_RCC_OscConfig+0x2be>
 8001c44:	e6c1      	b.n	80019ca <HAL_RCC_OscConfig+0x9a>
 8001c46:	f7ff f9c9 	bl	8000fdc <HAL_GetTick>
 8001c4a:	4604      	mov	r4, r0
 8001c4c:	682b      	ldr	r3, [r5, #0]
 8001c4e:	019b      	lsls	r3, r3, #6
 8001c50:	f57f ae85 	bpl.w	800195e <HAL_RCC_OscConfig+0x2e>
 8001c54:	f7ff f9c2 	bl	8000fdc <HAL_GetTick>
 8001c58:	1b00      	subs	r0, r0, r4
 8001c5a:	2802      	cmp	r0, #2
 8001c5c:	d9f6      	bls.n	8001c4c <HAL_RCC_OscConfig+0x31c>
 8001c5e:	e6b4      	b.n	80019ca <HAL_RCC_OscConfig+0x9a>
 8001c60:	2b01      	cmp	r3, #1
 8001c62:	f43f ae9c 	beq.w	800199e <HAL_RCC_OscConfig+0x6e>
 8001c66:	686b      	ldr	r3, [r5, #4]
 8001c68:	69e2      	ldr	r2, [r4, #28]
 8001c6a:	f403 0180 	and.w	r1, r3, #4194304	@ 0x400000
 8001c6e:	4291      	cmp	r1, r2
 8001c70:	f47f ae95 	bne.w	800199e <HAL_RCC_OscConfig+0x6e>
 8001c74:	6a21      	ldr	r1, [r4, #32]
 8001c76:	f003 023f 	and.w	r2, r3, #63	@ 0x3f
 8001c7a:	428a      	cmp	r2, r1
 8001c7c:	f47f ae8f 	bne.w	800199e <HAL_RCC_OscConfig+0x6e>
 8001c80:	6a61      	ldr	r1, [r4, #36]	@ 0x24
 8001c82:	f647 72c0 	movw	r2, #32704	@ 0x7fc0
 8001c86:	401a      	ands	r2, r3
 8001c88:	ebb2 1f81 	cmp.w	r2, r1, lsl #6
 8001c8c:	f47f ae87 	bne.w	800199e <HAL_RCC_OscConfig+0x6e>
 8001c90:	6aa2      	ldr	r2, [r4, #40]	@ 0x28
 8001c92:	0852      	lsrs	r2, r2, #1
 8001c94:	f403 3140 	and.w	r1, r3, #196608	@ 0x30000
 8001c98:	3a01      	subs	r2, #1
 8001c9a:	ebb1 4f02 	cmp.w	r1, r2, lsl #16
 8001c9e:	f47f ae7e 	bne.w	800199e <HAL_RCC_OscConfig+0x6e>
 8001ca2:	6ae1      	ldr	r1, [r4, #44]	@ 0x2c
 8001ca4:	f003 6270 	and.w	r2, r3, #251658240	@ 0xf000000
 8001ca8:	ebb2 6f01 	cmp.w	r2, r1, lsl #24
 8001cac:	f47f ae77 	bne.w	800199e <HAL_RCC_OscConfig+0x6e>
 8001cb0:	6b22      	ldr	r2, [r4, #48]	@ 0x30
 8001cb2:	f003 43e0 	and.w	r3, r3, #1879048192	@ 0x70000000
 8001cb6:	ebb3 7f02 	cmp.w	r3, r2, lsl #28
 8001cba:	bf14      	ite	ne
 8001cbc:	2001      	movne	r0, #1
 8001cbe:	2000      	moveq	r0, #0
 8001cc0:	e684      	b.n	80019cc <HAL_RCC_OscConfig+0x9c>
 8001cc2:	bf00      	nop
 8001cc4:	40023800 	.word	0x40023800
 8001cc8:	42470000 	.word	0x42470000

08001ccc <HAL_TIM_Base_Start>:
 8001ccc:	f890 303d 	ldrb.w	r3, [r0, #61]	@ 0x3d
 8001cd0:	2b01      	cmp	r3, #1
 8001cd2:	d12c      	bne.n	8001d2e <HAL_TIM_Base_Start+0x62>
 8001cd4:	2302      	movs	r3, #2
 8001cd6:	4a17      	ldr	r2, [pc, #92]	@ (8001d34 <HAL_TIM_Base_Start+0x68>)
 8001cd8:	f880 303d 	strb.w	r3, [r0, #61]	@ 0x3d
 8001cdc:	6803      	ldr	r3, [r0, #0]
 8001cde:	4293      	cmp	r3, r2
 8001ce0:	d01a      	beq.n	8001d18 <HAL_TIM_Base_Start+0x4c>
 8001ce2:	f1b3 4f80 	cmp.w	r3, #1073741824	@ 0x40000000
 8001ce6:	d017      	beq.n	8001d18 <HAL_TIM_Base_Start+0x4c>
 8001ce8:	f5a2 427c 	sub.w	r2, r2, #64512	@ 0xfc00
 8001cec:	4293      	cmp	r3, r2
 8001cee:	d013      	beq.n	8001d18 <HAL_TIM_Base_Start+0x4c>
 8001cf0:	f502 6280 	add.w	r2, r2, #1024	@ 0x400
 8001cf4:	4293      	cmp	r3, r2
 8001cf6:	d00f      	beq.n	8001d18 <HAL_TIM_Base_Start+0x4c>
 8001cf8:	f502 6280 	add.w	r2, r2, #1024	@ 0x400
 8001cfc:	4293      	cmp	r3, r2
 8001cfe:	d00b      	beq.n	8001d18 <HAL_TIM_Base_Start+0x4c>
 8001d00:	f502 4278 	add.w	r2, r2, #63488	@ 0xf800
 8001d04:	4293      	cmp	r3, r2
 8001d06:	d007      	beq.n	8001d18 <HAL_TIM_Base_Start+0x4c>
 8001d08:	f502 5270 	add.w	r2, r2, #15360	@ 0x3c00
 8001d0c:	4293      	cmp	r3, r2
 8001d0e:	d003      	beq.n	8001d18 <HAL_TIM_Base_Start+0x4c>
 8001d10:	f5a2 3294 	sub.w	r2, r2, #75776	@ 0x12800
 8001d14:	4293      	cmp	r3, r2
 8001d16:	d104      	bne.n	8001d22 <HAL_TIM_Base_Start+0x56>
 8001d18:	689a      	ldr	r2, [r3, #8]
 8001d1a:	f002 0207 	and.w	r2, r2, #7
 8001d1e:	2a06      	cmp	r2, #6
 8001d20:	d003      	beq.n	8001d2a <HAL_TIM_Base_Start+0x5e>
 8001d22:	681a      	ldr	r2, [r3, #0]
 8001d24:	f042 0201 	orr.w	r2, r2, #1
 8001d28:	601a      	str	r2, [r3, #0]
 8001d2a:	2000      	movs	r0, #0
 8001d2c:	4770      	bx	lr
 8001d2e:	2001      	movs	r0, #1
 8001d30:	4770      	bx	lr
 8001d32:	bf00      	nop
 8001d34:	40010000 	.word	0x40010000

08001d38 <HAL_TIM_Base_Start_IT>:
 8001d38:	f890 303d 	ldrb.w	r3, [r0, #61]	@ 0x3d
 8001d3c:	2b01      	cmp	r3, #1
 8001d3e:	d130      	bne.n	8001da2 <HAL_TIM_Base_Start_IT+0x6a>
 8001d40:	2302      	movs	r3, #2
 8001d42:	f880 303d 	strb.w	r3, [r0, #61]	@ 0x3d
 8001d46:	6803      	ldr	r3, [r0, #0]
 8001d48:	68da      	ldr	r2, [r3, #12]
 8001d4a:	f042 0201 	orr.w	r2, r2, #1
 8001d4e:	60da      	str	r2, [r3, #12]
 8001d50:	4a15      	ldr	r2, [pc, #84]	@ (8001da8 <HAL_TIM_Base_Start_IT+0x70>)
 8001d52:	4293      	cmp	r3, r2
 8001d54:	d01a      	beq.n	8001d8c <HAL_TIM_Base_Start_IT+0x54>
 8001d56:	f1b3 4f80 	cmp.w	r3, #1073741824	@ 0x40000000
 8001d5a:	d017      	beq.n	8001d8c <HAL_TIM_Base_Start_IT+0x54>
 8001d5c:	f5a2 427c 	sub.w	r2, r2, #64512	@ 0xfc00
 8001d60:	4293      	cmp	r3, r2
 8001d62:	d013      	beq.n	8001d8c <HAL_TIM_Base_Start_IT+0x54>
 8001d64:	f502 6280 	add.w	r2, r2, #1024	@ 0x400
 8001d68:	4293      	cmp	r3, r2
 8001d6a:	d00f      	beq.n	8001d8c <HAL_TIM_Base_Start_IT+0x54>
 8001d6c:	f502 6280 	add.w	r2, r2, #1024	@ 0x400
 8001d70:	4293      	cmp	r3, r2
 8001d72:	d00b      	beq.n	8001d8c <HAL_TIM_Base_Start_IT+0x54>
 8001d74:	f502 4278 	add.w	r2, r2, #63488	@ 0xf800
 8001d78:	4293      	cmp	r3, r2
 8001d7a:	d007      	beq.n	8001d8c <HAL_TIM_Base_Start_IT+0x54>
 8001d7c:	f502 5270 	add.w	r2, r2, #15360	@ 0x3c00
 8001d80:	4293      	cmp	r3, r2
 8001d82:	d003      	beq.n	8001d8c <HAL_TIM_Base_Start_IT+0x54>
 8001d84:	f5a2 3294 	sub.w	r2, r2, #75776	@ 0x12800
 8001d88:	4293      	cmp	r3, r2
 8001d8a:	d104      	bne.n	8001d96 <HAL_TIM_Base_Start_IT+0x5e>
 8001d8c:	689a      	ldr	r2, [r3, #8]
 8001d8e:	f002 0207 	and.w	r2, r2, #7
 8001d92:	2a06      	cmp	r2, #6
 8001d94:	d003      	beq.n	8001d9e <HAL_TIM_Base_Start_IT+0x66>
 8001d96:	681a      	ldr	r2, [r3, #0]
 8001d98:	f042 0201 	orr.w	r2, r2, #1
 8001d9c:	601a      	str	r2, [r3, #0]
 8001d9e:	2000      	movs	r0, #0
 8001da0:	4770      	bx	lr
 8001da2:	2001      	movs	r0, #1
 8001da4:	4770      	bx	lr
 8001da6:	bf00      	nop
 8001da8:	40010000 	.word	0x40010000

08001dac <HAL_TIM_OC_DelayElapsedCallback>:
 8001dac:	4770      	bx	lr

08001dae <HAL_TIM_IC_CaptureCallback>:
 8001dae:	4770      	bx	lr

08001db0 <HAL_TIM_PWM_PulseFinishedCallback>:
 8001db0:	4770      	bx	lr

08001db2 <HAL_TIM_TriggerCallback>:
 8001db2:	4770      	bx	lr

08001db4 <HAL_TIM_IRQHandler>:
 8001db4:	6803      	ldr	r3, [r0, #0]
 8001db6:	b570      	push	{r4, r5, r6, lr}
 8001db8:	68dd      	ldr	r5, [r3, #12]
 8001dba:	691e      	ldr	r6, [r3, #16]
 8001dbc:	07b1      	lsls	r1, r6, #30
 8001dbe:	4604      	mov	r4, r0
 8001dc0:	d50d      	bpl.n	8001dde <HAL_TIM_IRQHandler+0x2a>
 8001dc2:	07aa      	lsls	r2, r5, #30
 8001dc4:	d50b      	bpl.n	8001dde <HAL_TIM_IRQHandler+0x2a>
 8001dc6:	f06f 0202 	mvn.w	r2, #2
 8001dca:	611a      	str	r2, [r3, #16]
 8001dcc:	2201      	movs	r2, #1
 8001dce:	7702      	strb	r2, [r0, #28]
 8001dd0:	699b      	ldr	r3, [r3, #24]
 8001dd2:	079b      	lsls	r3, r3, #30
 8001dd4:	d069      	beq.n	8001eaa <HAL_TIM_IRQHandler+0xf6>
 8001dd6:	f7ff ffea 	bl	8001dae <HAL_TIM_IC_CaptureCallback>
 8001dda:	2300      	movs	r3, #0
 8001ddc:	7723      	strb	r3, [r4, #28]
 8001dde:	0771      	lsls	r1, r6, #29
 8001de0:	d510      	bpl.n	8001e04 <HAL_TIM_IRQHandler+0x50>
 8001de2:	076a      	lsls	r2, r5, #29
 8001de4:	d50e      	bpl.n	8001e04 <HAL_TIM_IRQHandler+0x50>
 8001de6:	6823      	ldr	r3, [r4, #0]
 8001de8:	f06f 0204 	mvn.w	r2, #4
 8001dec:	611a      	str	r2, [r3, #16]
 8001dee:	2202      	movs	r2, #2
 8001df0:	7722      	strb	r2, [r4, #28]
 8001df2:	699b      	ldr	r3, [r3, #24]
 8001df4:	f413 7f40 	tst.w	r3, #768	@ 0x300
 8001df8:	4620      	mov	r0, r4
 8001dfa:	d05c      	beq.n	8001eb6 <HAL_TIM_IRQHandler+0x102>
 8001dfc:	f7ff ffd7 	bl	8001dae <HAL_TIM_IC_CaptureCallback>
 8001e00:	2300      	movs	r3, #0
 8001e02:	7723      	strb	r3, [r4, #28]
 8001e04:	0733      	lsls	r3, r6, #28
 8001e06:	d50f      	bpl.n	8001e28 <HAL_TIM_IRQHandler+0x74>
 8001e08:	0728      	lsls	r0, r5, #28
 8001e0a:	d50d      	bpl.n	8001e28 <HAL_TIM_IRQHandler+0x74>
 8001e0c:	6823      	ldr	r3, [r4, #0]
 8001e0e:	f06f 0208 	mvn.w	r2, #8
 8001e12:	611a      	str	r2, [r3, #16]
 8001e14:	2204      	movs	r2, #4
 8001e16:	7722      	strb	r2, [r4, #28]
 8001e18:	69db      	ldr	r3, [r3, #28]
 8001e1a:	0799      	lsls	r1, r3, #30
 8001e1c:	4620      	mov	r0, r4
 8001e1e:	d050      	beq.n	8001ec2 <HAL_TIM_IRQHandler+0x10e>
 8001e20:	f7ff ffc5 	bl	8001dae <HAL_TIM_IC_CaptureCallback>
 8001e24:	2300      	movs	r3, #0
 8001e26:	7723      	strb	r3, [r4, #28]
 8001e28:	06f2      	lsls	r2, r6, #27
 8001e2a:	d510      	bpl.n	8001e4e <HAL_TIM_IRQHandler+0x9a>
 8001e2c:	06eb      	lsls	r3, r5, #27
 8001e2e:	d50e      	bpl.n	8001e4e <HAL_TIM_IRQHandler+0x9a>
 8001e30:	6823      	ldr	r3, [r4, #0]
 8001e32:	f06f 0210 	mvn.w	r2, #16
 8001e36:	611a      	str	r2, [r3, #16]
 8001e38:	2208      	movs	r2, #8
 8001e3a:	7722      	strb	r2, [r4, #28]
 8001e3c:	69db      	ldr	r3, [r3, #28]
 8001e3e:	f413 7f40 	tst.w	r3, #768	@ 0x300
 8001e42:	4620      	mov	r0, r4
 8001e44:	d043      	beq.n	8001ece <HAL_TIM_IRQHandler+0x11a>
 8001e46:	f7ff ffb2 	bl	8001dae <HAL_TIM_IC_CaptureCallback>
 8001e4a:	2300      	movs	r3, #0
 8001e4c:	7723      	strb	r3, [r4, #28]
 8001e4e:	07f0      	lsls	r0, r6, #31
 8001e50:	d508      	bpl.n	8001e64 <HAL_TIM_IRQHandler+0xb0>
 8001e52:	07e9      	lsls	r1, r5, #31
 8001e54:	d506      	bpl.n	8001e64 <HAL_TIM_IRQHandler+0xb0>
 8001e56:	6823      	ldr	r3, [r4, #0]
 8001e58:	f06f 0201 	mvn.w	r2, #1
 8001e5c:	611a      	str	r2, [r3, #16]
 8001e5e:	4620      	mov	r0, r4
 8001e60:	f7fe fd42 	bl	80008e8 <HAL_TIM_PeriodElapsedCallback>
 8001e64:	0632      	lsls	r2, r6, #24
 8001e66:	d508      	bpl.n	8001e7a <HAL_TIM_IRQHandler+0xc6>
 8001e68:	062b      	lsls	r3, r5, #24
 8001e6a:	d506      	bpl.n	8001e7a <HAL_TIM_IRQHandler+0xc6>
 8001e6c:	6823      	ldr	r3, [r4, #0]
 8001e6e:	f06f 0280 	mvn.w	r2, #128	@ 0x80
 8001e72:	611a      	str	r2, [r3, #16]
 8001e74:	4620      	mov	r0, r4
 8001e76:	f000 f9ac 	bl	80021d2 <HAL_TIMEx_BreakCallback>
 8001e7a:	0670      	lsls	r0, r6, #25
 8001e7c:	d508      	bpl.n	8001e90 <HAL_TIM_IRQHandler+0xdc>
 8001e7e:	0669      	lsls	r1, r5, #25
 8001e80:	d506      	bpl.n	8001e90 <HAL_TIM_IRQHandler+0xdc>
 8001e82:	6823      	ldr	r3, [r4, #0]
 8001e84:	f06f 0240 	mvn.w	r2, #64	@ 0x40
 8001e88:	611a      	str	r2, [r3, #16]
 8001e8a:	4620      	mov	r0, r4
 8001e8c:	f7ff ff91 	bl	8001db2 <HAL_TIM_TriggerCallback>
 8001e90:	06b2      	lsls	r2, r6, #26
 8001e92:	d522      	bpl.n	8001eda <HAL_TIM_IRQHandler+0x126>
 8001e94:	06ab      	lsls	r3, r5, #26
 8001e96:	d520      	bpl.n	8001eda <HAL_TIM_IRQHandler+0x126>
 8001e98:	6823      	ldr	r3, [r4, #0]
 8001e9a:	f06f 0220 	mvn.w	r2, #32
 8001e9e:	4620      	mov	r0, r4
 8001ea0:	611a      	str	r2, [r3, #16]
 8001ea2:	e8bd 4070 	ldmia.w	sp!, {r4, r5, r6, lr}
 8001ea6:	f000 b993 	b.w	80021d0 <HAL_TIMEx_CommutCallback>
 8001eaa:	f7ff ff7f 	bl	8001dac <HAL_TIM_OC_DelayElapsedCallback>
 8001eae:	4620      	mov	r0, r4
 8001eb0:	f7ff ff7e 	bl	8001db0 <HAL_TIM_PWM_PulseFinishedCallback>
 8001eb4:	e791      	b.n	8001dda <HAL_TIM_IRQHandler+0x26>
 8001eb6:	f7ff ff79 	bl	8001dac <HAL_TIM_OC_DelayElapsedCallback>
 8001eba:	4620      	mov	r0, r4
 8001ebc:	f7ff ff78 	bl	8001db0 <HAL_TIM_PWM_PulseFinishedCallback>
 8001ec0:	e79e      	b.n	8001e00 <HAL_TIM_IRQHandler+0x4c>
 8001ec2:	f7ff ff73 	bl	8001dac <HAL_TIM_OC_DelayElapsedCallback>
 8001ec6:	4620      	mov	r0, r4
 8001ec8:	f7ff ff72 	bl	8001db0 <HAL_TIM_PWM_PulseFinishedCallback>
 8001ecc:	e7aa      	b.n	8001e24 <HAL_TIM_IRQHandler+0x70>
 8001ece:	f7ff ff6d 	bl	8001dac <HAL_TIM_OC_DelayElapsedCallback>
 8001ed2:	4620      	mov	r0, r4
 8001ed4:	f7ff ff6c 	bl	8001db0 <HAL_TIM_PWM_PulseFinishedCallback>
 8001ed8:	e7b7      	b.n	8001e4a <HAL_TIM_IRQHandler+0x96>
 8001eda:	bd70      	pop	{r4, r5, r6, pc}

08001edc <TIM_Base_SetConfig>:
 8001edc:	4a33      	ldr	r2, [pc, #204]	@ (8001fac <TIM_Base_SetConfig+0xd0>)
 8001ede:	6803      	ldr	r3, [r0, #0]
 8001ee0:	4290      	cmp	r0, r2
 8001ee2:	d012      	beq.n	8001f0a <TIM_Base_SetConfig+0x2e>
 8001ee4:	f1b0 4f80 	cmp.w	r0, #1073741824	@ 0x40000000
 8001ee8:	d00f      	beq.n	8001f0a <TIM_Base_SetConfig+0x2e>
 8001eea:	f5a2 427c 	sub.w	r2, r2, #64512	@ 0xfc00
 8001eee:	4290      	cmp	r0, r2
 8001ef0:	d00b      	beq.n	8001f0a <TIM_Base_SetConfig+0x2e>
 8001ef2:	f502 6280 	add.w	r2, r2, #1024	@ 0x400
 8001ef6:	4290      	cmp	r0, r2
 8001ef8:	d007      	beq.n	8001f0a <TIM_Base_SetConfig+0x2e>
 8001efa:	f502 6280 	add.w	r2, r2, #1024	@ 0x400
 8001efe:	4290      	cmp	r0, r2
 8001f00:	d003      	beq.n	8001f0a <TIM_Base_SetConfig+0x2e>
 8001f02:	f502 4278 	add.w	r2, r2, #63488	@ 0xf800
 8001f06:	4290      	cmp	r0, r2
 8001f08:	d119      	bne.n	8001f3e <TIM_Base_SetConfig+0x62>
 8001f0a:	684a      	ldr	r2, [r1, #4]
 8001f0c:	f023 0370 	bic.w	r3, r3, #112	@ 0x70
 8001f10:	4313      	orrs	r3, r2
 8001f12:	4a26      	ldr	r2, [pc, #152]	@ (8001fac <TIM_Base_SetConfig+0xd0>)
 8001f14:	4290      	cmp	r0, r2
 8001f16:	d029      	beq.n	8001f6c <TIM_Base_SetConfig+0x90>
 8001f18:	f1b0 4f80 	cmp.w	r0, #1073741824	@ 0x40000000
 8001f1c:	d026      	beq.n	8001f6c <TIM_Base_SetConfig+0x90>
 8001f1e:	f5a2 427c 	sub.w	r2, r2, #64512	@ 0xfc00
 8001f22:	4290      	cmp	r0, r2
 8001f24:	d022      	beq.n	8001f6c <TIM_Base_SetConfig+0x90>
 8001f26:	f502 6280 	add.w	r2, r2, #1024	@ 0x400
 8001f2a:	4290      	cmp	r0, r2
 8001f2c:	d01e      	beq.n	8001f6c <TIM_Base_SetConfig+0x90>
 8001f2e:	f502 6280 	add.w	r2, r2, #1024	@ 0x400
 8001f32:	4290      	cmp	r0, r2
 8001f34:	d01a      	beq.n	8001f6c <TIM_Base_SetConfig+0x90>
 8001f36:	f502 4278 	add.w	r2, r2, #63488	@ 0xf800
 8001f3a:	4290      	cmp	r0, r2
 8001f3c:	d016      	beq.n	8001f6c <TIM_Base_SetConfig+0x90>
 8001f3e:	4a1c      	ldr	r2, [pc, #112]	@ (8001fb0 <TIM_Base_SetConfig+0xd4>)
 8001f40:	4290      	cmp	r0, r2
 8001f42:	d013      	beq.n	8001f6c <TIM_Base_SetConfig+0x90>
 8001f44:	f502 6280 	add.w	r2, r2, #1024	@ 0x400
 8001f48:	4290      	cmp	r0, r2
 8001f4a:	d00f      	beq.n	8001f6c <TIM_Base_SetConfig+0x90>
 8001f4c:	f502 6280 	add.w	r2, r2, #1024	@ 0x400
 8001f50:	4290      	cmp	r0, r2
 8001f52:	d00b      	beq.n	8001f6c <TIM_Base_SetConfig+0x90>
 8001f54:	f5a2 3298 	sub.w	r2, r2, #77824	@ 0x13000
 8001f58:	4290      	cmp	r0, r2
 8001f5a:	d007      	beq.n	8001f6c <TIM_Base_SetConfig+0x90>
 8001f5c:	f502 6280 	add.w	r2, r2, #1024	@ 0x400
 8001f60:	4290      	cmp	r0, r2
 8001f62:	d003      	beq.n	8001f6c <TIM_Base_SetConfig+0x90>
 8001f64:	f502 6280 	add.w	r2, r2, #1024	@ 0x400
 8001f68:	4290      	cmp	r0, r2
 8001f6a:	d103      	bne.n	8001f74 <TIM_Base_SetConfig+0x98>
 8001f6c:	68ca      	ldr	r2, [r1, #12]
 8001f6e:	f423 7340 	bic.w	r3, r3, #768	@ 0x300
 8001f72:	4313      	orrs	r3, r2
 8001f74:	694a      	ldr	r2, [r1, #20]
 8001f76:	f023 0380 	bic.w	r3, r3, #128	@ 0x80
 8001f7a:	4313      	orrs	r3, r2
 8001f7c:	6003      	str	r3, [r0, #0]
 8001f7e:	688b      	ldr	r3, [r1, #8]
 8001f80:	62c3      	str	r3, [r0, #44]	@ 0x2c
 8001f82:	680b      	ldr	r3, [r1, #0]
 8001f84:	6283      	str	r3, [r0, #40]	@ 0x28
 8001f86:	4b09      	ldr	r3, [pc, #36]	@ (8001fac <TIM_Base_SetConfig+0xd0>)
 8001f88:	4298      	cmp	r0, r3
 8001f8a:	d003      	beq.n	8001f94 <TIM_Base_SetConfig+0xb8>
 8001f8c:	f503 6380 	add.w	r3, r3, #1024	@ 0x400
 8001f90:	4298      	cmp	r0, r3
 8001f92:	d101      	bne.n	8001f98 <TIM_Base_SetConfig+0xbc>
 8001f94:	690b      	ldr	r3, [r1, #16]
 8001f96:	6303      	str	r3, [r0, #48]	@ 0x30
 8001f98:	2301      	movs	r3, #1
 8001f9a:	6143      	str	r3, [r0, #20]
 8001f9c:	6903      	ldr	r3, [r0, #16]
 8001f9e:	07db      	lsls	r3, r3, #31
 8001fa0:	bf42      	ittt	mi
 8001fa2:	6903      	ldrmi	r3, [r0, #16]
 8001fa4:	f023 0301 	bicmi.w	r3, r3, #1
 8001fa8:	6103      	strmi	r3, [r0, #16]
 8001faa:	4770      	bx	lr
 8001fac:	40010000 	.word	0x40010000
 8001fb0:	40014000 	.word	0x40014000

08001fb4 <HAL_TIM_Base_Init>:
 8001fb4:	b510      	push	{r4, lr}
 8001fb6:	4604      	mov	r4, r0
 8001fb8:	b330      	cbz	r0, 8002008 <HAL_TIM_Base_Init+0x54>
 8001fba:	f890 303d 	ldrb.w	r3, [r0, #61]	@ 0x3d
 8001fbe:	f003 02ff 	and.w	r2, r3, #255	@ 0xff
 8001fc2:	b91b      	cbnz	r3, 8001fcc <HAL_TIM_Base_Init+0x18>
 8001fc4:	f880 203c 	strb.w	r2, [r0, #60]	@ 0x3c
 8001fc8:	f7fe feda 	bl	8000d80 <HAL_TIM_Base_MspInit>
 8001fcc:	2302      	movs	r3, #2
 8001fce:	6820      	ldr	r0, [r4, #0]
 8001fd0:	f884 303d 	strb.w	r3, [r4, #61]	@ 0x3d
 8001fd4:	1d21      	adds	r1, r4, #4
 8001fd6:	f7ff ff81 	bl	8001edc <TIM_Base_SetConfig>
 8001fda:	2301      	movs	r3, #1
 8001fdc:	f884 3046 	strb.w	r3, [r4, #70]	@ 0x46
 8001fe0:	2000      	movs	r0, #0
 8001fe2:	f884 303e 	strb.w	r3, [r4, #62]	@ 0x3e
 8001fe6:	f884 303f 	strb.w	r3, [r4, #63]	@ 0x3f
 8001fea:	f884 3040 	strb.w	r3, [r4, #64]	@ 0x40
 8001fee:	f884 3041 	strb.w	r3, [r4, #65]	@ 0x41
 8001ff2:	f884 3042 	strb.w	r3, [r4, #66]	@ 0x42
 8001ff6:	f884 3043 	strb.w	r3, [r4, #67]	@ 0x43
 8001ffa:	f884 3044 	strb.w	r3, [r4, #68]	@ 0x44
 8001ffe:	f884 3045 	strb.w	r3, [r4, #69]	@ 0x45
 8002002:	f884 303d 	strb.w	r3, [r4, #61]	@ 0x3d
 8002006:	bd10      	pop	{r4, pc}
 8002008:	2001      	movs	r0, #1
 800200a:	e7fc      	b.n	8002006 <HAL_TIM_Base_Init+0x52>

0800200c <TIM_ETR_SetConfig>:
 800200c:	b510      	push	{r4, lr}
 800200e:	6884      	ldr	r4, [r0, #8]
 8002010:	430a      	orrs	r2, r1
 8002012:	f424 447f 	bic.w	r4, r4, #65280	@ 0xff00
 8002016:	ea42 2203 	orr.w	r2, r2, r3, lsl #8
 800201a:	4322      	orrs	r2, r4
 800201c:	6082      	str	r2, [r0, #8]
 800201e:	bd10      	pop	{r4, pc}

08002020 <HAL_TIM_ConfigClockSource>:
 8002020:	b538      	push	{r3, r4, r5, lr}
 8002022:	f890 303c 	ldrb.w	r3, [r0, #60]	@ 0x3c
 8002026:	2b01      	cmp	r3, #1
 8002028:	4604      	mov	r4, r0
 800202a:	f04f 0002 	mov.w	r0, #2
 800202e:	f000 808e 	beq.w	800214e <HAL_TIM_ConfigClockSource+0x12e>
 8002032:	f884 003d 	strb.w	r0, [r4, #61]	@ 0x3d
 8002036:	2201      	movs	r2, #1
 8002038:	6820      	ldr	r0, [r4, #0]
 800203a:	f884 203c 	strb.w	r2, [r4, #60]	@ 0x3c
 800203e:	6883      	ldr	r3, [r0, #8]
 8002040:	f423 437f 	bic.w	r3, r3, #65280	@ 0xff00
 8002044:	f023 0377 	bic.w	r3, r3, #119	@ 0x77
 8002048:	6083      	str	r3, [r0, #8]
 800204a:	680b      	ldr	r3, [r1, #0]
 800204c:	2b60      	cmp	r3, #96	@ 0x60
 800204e:	d04f      	beq.n	80020f0 <HAL_TIM_ConfigClockSource+0xd0>
 8002050:	d832      	bhi.n	80020b8 <HAL_TIM_ConfigClockSource+0x98>
 8002052:	2b40      	cmp	r3, #64	@ 0x40
 8002054:	d064      	beq.n	8002120 <HAL_TIM_ConfigClockSource+0x100>
 8002056:	d816      	bhi.n	8002086 <HAL_TIM_ConfigClockSource+0x66>
 8002058:	2b20      	cmp	r3, #32
 800205a:	d00d      	beq.n	8002078 <HAL_TIM_ConfigClockSource+0x58>
 800205c:	d80a      	bhi.n	8002074 <HAL_TIM_ConfigClockSource+0x54>
 800205e:	f033 0110 	bics.w	r1, r3, #16
 8002062:	d009      	beq.n	8002078 <HAL_TIM_ConfigClockSource+0x58>
 8002064:	2301      	movs	r3, #1
 8002066:	f884 303d 	strb.w	r3, [r4, #61]	@ 0x3d
 800206a:	2300      	movs	r3, #0
 800206c:	f884 303c 	strb.w	r3, [r4, #60]	@ 0x3c
 8002070:	4610      	mov	r0, r2
 8002072:	bd38      	pop	{r3, r4, r5, pc}
 8002074:	2b30      	cmp	r3, #48	@ 0x30
 8002076:	d1f5      	bne.n	8002064 <HAL_TIM_ConfigClockSource+0x44>
 8002078:	6882      	ldr	r2, [r0, #8]
 800207a:	f022 0270 	bic.w	r2, r2, #112	@ 0x70
 800207e:	4313      	orrs	r3, r2
 8002080:	f043 0307 	orr.w	r3, r3, #7
 8002084:	e028      	b.n	80020d8 <HAL_TIM_ConfigClockSource+0xb8>
 8002086:	2b50      	cmp	r3, #80	@ 0x50
 8002088:	d1ec      	bne.n	8002064 <HAL_TIM_ConfigClockSource+0x44>
 800208a:	684a      	ldr	r2, [r1, #4]
 800208c:	68cd      	ldr	r5, [r1, #12]
 800208e:	6a01      	ldr	r1, [r0, #32]
 8002090:	6a03      	ldr	r3, [r0, #32]
 8002092:	f023 0301 	bic.w	r3, r3, #1
 8002096:	6203      	str	r3, [r0, #32]
 8002098:	6983      	ldr	r3, [r0, #24]
 800209a:	f021 010a 	bic.w	r1, r1, #10
 800209e:	f023 03f0 	bic.w	r3, r3, #240	@ 0xf0
 80020a2:	ea43 1305 	orr.w	r3, r3, r5, lsl #4
 80020a6:	430a      	orrs	r2, r1
 80020a8:	6183      	str	r3, [r0, #24]
 80020aa:	6202      	str	r2, [r0, #32]
 80020ac:	6883      	ldr	r3, [r0, #8]
 80020ae:	f023 0370 	bic.w	r3, r3, #112	@ 0x70
 80020b2:	f043 0357 	orr.w	r3, r3, #87	@ 0x57
 80020b6:	e00f      	b.n	80020d8 <HAL_TIM_ConfigClockSource+0xb8>
 80020b8:	f5b3 5f80 	cmp.w	r3, #4096	@ 0x1000
 80020bc:	d00d      	beq.n	80020da <HAL_TIM_ConfigClockSource+0xba>
 80020be:	f5b3 5f00 	cmp.w	r3, #8192	@ 0x2000
 80020c2:	d00c      	beq.n	80020de <HAL_TIM_ConfigClockSource+0xbe>
 80020c4:	2b70      	cmp	r3, #112	@ 0x70
 80020c6:	d1cd      	bne.n	8002064 <HAL_TIM_ConfigClockSource+0x44>
 80020c8:	68cb      	ldr	r3, [r1, #12]
 80020ca:	e9d1 2101 	ldrd	r2, r1, [r1, #4]
 80020ce:	f7ff ff9d 	bl	800200c <TIM_ETR_SetConfig>
 80020d2:	6883      	ldr	r3, [r0, #8]
 80020d4:	f043 0377 	orr.w	r3, r3, #119	@ 0x77
 80020d8:	6083      	str	r3, [r0, #8]
 80020da:	2200      	movs	r2, #0
 80020dc:	e7c2      	b.n	8002064 <HAL_TIM_ConfigClockSource+0x44>
 80020de:	68cb      	ldr	r3, [r1, #12]
 80020e0:	e9d1 2101 	ldrd	r2, r1, [r1, #4]
 80020e4:	f7ff ff92 	bl	800200c <TIM_ETR_SetConfig>
 80020e8:	6883      	ldr	r3, [r0, #8]
 80020ea:	f443 4380 	orr.w	r3, r3, #16384	@ 0x4000
 80020ee:	e7f3      	b.n	80020d8 <HAL_TIM_ConfigClockSource+0xb8>
 80020f0:	6a03      	ldr	r3, [r0, #32]
 80020f2:	6a02      	ldr	r2, [r0, #32]
 80020f4:	684d      	ldr	r5, [r1, #4]
 80020f6:	68c9      	ldr	r1, [r1, #12]
 80020f8:	f022 0210 	bic.w	r2, r2, #16
 80020fc:	6202      	str	r2, [r0, #32]
 80020fe:	6982      	ldr	r2, [r0, #24]
 8002100:	f023 03a0 	bic.w	r3, r3, #160	@ 0xa0
 8002104:	f422 4270 	bic.w	r2, r2, #61440	@ 0xf000
 8002108:	ea43 1305 	orr.w	r3, r3, r5, lsl #4
 800210c:	ea42 3201 	orr.w	r2, r2, r1, lsl #12
 8002110:	6182      	str	r2, [r0, #24]
 8002112:	6203      	str	r3, [r0, #32]
 8002114:	6883      	ldr	r3, [r0, #8]
 8002116:	f023 0370 	bic.w	r3, r3, #112	@ 0x70
 800211a:	f043 0367 	orr.w	r3, r3, #103	@ 0x67
 800211e:	e7db      	b.n	80020d8 <HAL_TIM_ConfigClockSource+0xb8>
 8002120:	684a      	ldr	r2, [r1, #4]
 8002122:	68cd      	ldr	r5, [r1, #12]
 8002124:	6a01      	ldr	r1, [r0, #32]
 8002126:	6a03      	ldr	r3, [r0, #32]
 8002128:	f023 0301 	bic.w	r3, r3, #1
 800212c:	6203      	str	r3, [r0, #32]
 800212e:	6983      	ldr	r3, [r0, #24]
 8002130:	f021 010a 	bic.w	r1, r1, #10
 8002134:	f023 03f0 	bic.w	r3, r3, #240	@ 0xf0
 8002138:	ea43 1305 	orr.w	r3, r3, r5, lsl #4
 800213c:	430a      	orrs	r2, r1
 800213e:	6183      	str	r3, [r0, #24]
 8002140:	6202      	str	r2, [r0, #32]
 8002142:	6883      	ldr	r3, [r0, #8]
 8002144:	f023 0370 	bic.w	r3, r3, #112	@ 0x70
 8002148:	f043 0347 	orr.w	r3, r3, #71	@ 0x47
 800214c:	e7c4      	b.n	80020d8 <HAL_TIM_ConfigClockSource+0xb8>
 800214e:	4602      	mov	r2, r0
 8002150:	e78e      	b.n	8002070 <HAL_TIM_ConfigClockSource+0x50>
	...

08002154 <HAL_TIMEx_MasterConfigSynchronization>:
 8002154:	b530      	push	{r4, r5, lr}
 8002156:	f890 303c 	ldrb.w	r3, [r0, #60]	@ 0x3c
 800215a:	2b01      	cmp	r3, #1
 800215c:	4602      	mov	r2, r0
 800215e:	f04f 0002 	mov.w	r0, #2
 8002162:	d032      	beq.n	80021ca <HAL_TIMEx_MasterConfigSynchronization+0x76>
 8002164:	6813      	ldr	r3, [r2, #0]
 8002166:	f882 003d 	strb.w	r0, [r2, #61]	@ 0x3d
 800216a:	685c      	ldr	r4, [r3, #4]
 800216c:	680d      	ldr	r5, [r1, #0]
 800216e:	6898      	ldr	r0, [r3, #8]
 8002170:	f024 0470 	bic.w	r4, r4, #112	@ 0x70
 8002174:	432c      	orrs	r4, r5
 8002176:	605c      	str	r4, [r3, #4]
 8002178:	4c14      	ldr	r4, [pc, #80]	@ (80021cc <HAL_TIMEx_MasterConfigSynchronization+0x78>)
 800217a:	42a3      	cmp	r3, r4
 800217c:	d01a      	beq.n	80021b4 <HAL_TIMEx_MasterConfigSynchronization+0x60>
 800217e:	f1b3 4f80 	cmp.w	r3, #1073741824	@ 0x40000000
 8002182:	d017      	beq.n	80021b4 <HAL_TIMEx_MasterConfigSynchronization+0x60>
 8002184:	f5a4 447c 	sub.w	r4, r4, #64512	@ 0xfc00
 8002188:	42a3      	cmp	r3, r4
 800218a:	d013      	beq.n	80021b4 <HAL_TIMEx_MasterConfigSynchronization+0x60>
 800218c:	f504 6480 	add.w	r4, r4, #1024	@ 0x400
 8002190:	42a3      	cmp	r3, r4
 8002192:	d00f      	beq.n	80021b4 <HAL_TIMEx_MasterConfigSynchronization+0x60>
 8002194:	f504 6480 	add.w	r4, r4, #1024	@ 0x400
 8002198:	42a3      	cmp	r3, r4
 800219a:	d00b      	beq.n	80021b4 <HAL_TIMEx_MasterConfigSynchronization+0x60>
 800219c:	f504 4478 	add.w	r4, r4, #63488	@ 0xf800
 80021a0:	42a3      	cmp	r3, r4
 80021a2:	d007      	beq.n	80021b4 <HAL_TIMEx_MasterConfigSynchronization+0x60>
 80021a4:	f504 5470 	add.w	r4, r4, #15360	@ 0x3c00
 80021a8:	42a3      	cmp	r3, r4
 80021aa:	d003      	beq.n	80021b4 <HAL_TIMEx_MasterConfigSynchronization+0x60>
 80021ac:	f5a4 3494 	sub.w	r4, r4, #75776	@ 0x12800
 80021b0:	42a3      	cmp	r3, r4
 80021b2:	d104      	bne.n	80021be <HAL_TIMEx_MasterConfigSynchronization+0x6a>
 80021b4:	6849      	ldr	r1, [r1, #4]
 80021b6:	f020 0080 	bic.w	r0, r0, #128	@ 0x80
 80021ba:	4301      	orrs	r1, r0
 80021bc:	6099      	str	r1, [r3, #8]
 80021be:	2301      	movs	r3, #1
 80021c0:	2000      	movs	r0, #0
 80021c2:	f882 303d 	strb.w	r3, [r2, #61]	@ 0x3d
 80021c6:	f882 003c 	strb.w	r0, [r2, #60]	@ 0x3c
 80021ca:	bd30      	pop	{r4, r5, pc}
 80021cc:	40010000 	.word	0x40010000

080021d0 <HAL_TIMEx_CommutCallback>:
 80021d0:	4770      	bx	lr

080021d2 <HAL_TIMEx_BreakCallback>:
 80021d2:	4770      	bx	lr

080021d4 <UART_EndRxTransfer>:
 80021d4:	6802      	ldr	r2, [r0, #0]
 80021d6:	f102 030c 	add.w	r3, r2, #12
 80021da:	e853 3f00 	ldrex	r3, [r3]
 80021de:	f423 7390 	bic.w	r3, r3, #288	@ 0x120
 80021e2:	320c      	adds	r2, #12
 80021e4:	e842 3100 	strex	r1, r3, [r2]
 80021e8:	6802      	ldr	r2, [r0, #0]
 80021ea:	2900      	cmp	r1, #0
 80021ec:	d1f2      	bne.n	80021d4 <UART_EndRxTransfer>
 80021ee:	f102 0314 	add.w	r3, r2, #20
 80021f2:	e853 3f00 	ldrex	r3, [r3]
 80021f6:	f023 0301 	bic.w	r3, r3, #1
 80021fa:	f102 0c14 	add.w	ip, r2, #20
 80021fe:	e84c 3100 	strex	r1, r3, [ip]
 8002202:	2900      	cmp	r1, #0
 8002204:	d1f3      	bne.n	80021ee <UART_EndRxTransfer+0x1a>
 8002206:	6b03      	ldr	r3, [r0, #48]	@ 0x30
 8002208:	2b01      	cmp	r3, #1
 800220a:	d10b      	bne.n	8002224 <UART_EndRxTransfer+0x50>
 800220c:	f102 030c 	add.w	r3, r2, #12
 8002210:	e853 3f00 	ldrex	r3, [r3]
 8002214:	f023 0310 	bic.w	r3, r3, #16
 8002218:	f102 0c0c 	add.w	ip, r2, #12
 800221c:	e84c 3100 	strex	r1, r3, [ip]
 8002220:	2900      	cmp	r1, #0
 8002222:	d1f3      	bne.n	800220c <UART_EndRxTransfer+0x38>
 8002224:	2320      	movs	r3, #32
 8002226:	f880 3042 	strb.w	r3, [r0, #66]	@ 0x42
 800222a:	2300      	movs	r3, #0
 800222c:	6303      	str	r3, [r0, #48]	@ 0x30
 800222e:	4770      	bx	lr

08002230 <UART_SetConfig>:
 8002230:	6802      	ldr	r2, [r0, #0]
 8002232:	68c1      	ldr	r1, [r0, #12]
 8002234:	b538      	push	{r3, r4, r5, lr}
 8002236:	6913      	ldr	r3, [r2, #16]
 8002238:	f423 5340 	bic.w	r3, r3, #12288	@ 0x3000
 800223c:	430b      	orrs	r3, r1
 800223e:	6113      	str	r3, [r2, #16]
 8002240:	4605      	mov	r5, r0
 8002242:	6883      	ldr	r3, [r0, #8]
 8002244:	6900      	ldr	r0, [r0, #16]
 8002246:	68d1      	ldr	r1, [r2, #12]
 8002248:	4303      	orrs	r3, r0
 800224a:	6968      	ldr	r0, [r5, #20]
 800224c:	4303      	orrs	r3, r0
 800224e:	69e8      	ldr	r0, [r5, #28]
 8002250:	f421 4116 	bic.w	r1, r1, #38400	@ 0x9600
 8002254:	f021 010c 	bic.w	r1, r1, #12
 8002258:	4303      	orrs	r3, r0
 800225a:	430b      	orrs	r3, r1
 800225c:	60d3      	str	r3, [r2, #12]
 800225e:	6953      	ldr	r3, [r2, #20]
 8002260:	69a9      	ldr	r1, [r5, #24]
 8002262:	f423 7340 	bic.w	r3, r3, #768	@ 0x300
 8002266:	430b      	orrs	r3, r1
 8002268:	6153      	str	r3, [r2, #20]
 800226a:	4b1f      	ldr	r3, [pc, #124]	@ (80022e8 <UART_SetConfig+0xb8>)
 800226c:	429a      	cmp	r2, r3
 800226e:	d003      	beq.n	8002278 <UART_SetConfig+0x48>
 8002270:	f503 6380 	add.w	r3, r3, #1024	@ 0x400
 8002274:	429a      	cmp	r2, r3
 8002276:	d124      	bne.n	80022c2 <UART_SetConfig+0x92>
 8002278:	f7ff fb02 	bl	8001880 <HAL_RCC_GetPCLK2Freq>
 800227c:	69ea      	ldr	r2, [r5, #28]
 800227e:	2119      	movs	r1, #25
 8002280:	f5b2 4f00 	cmp.w	r2, #32768	@ 0x8000
 8002284:	e9d5 4300 	ldrd	r4, r3, [r5]
 8002288:	fba0 0101 	umull	r0, r1, r0, r1
 800228c:	d11c      	bne.n	80022c8 <UART_SetConfig+0x98>
 800228e:	18da      	adds	r2, r3, r3
 8002290:	f04f 0500 	mov.w	r5, #0
 8002294:	eb45 0305 	adc.w	r3, r5, r5
 8002298:	f7fe f812 	bl	80002c0 <__aeabi_uldivmod>
 800229c:	2264      	movs	r2, #100	@ 0x64
 800229e:	fbb0 f1f2 	udiv	r1, r0, r2
 80022a2:	fb02 0311 	mls	r3, r2, r1, r0
 80022a6:	00db      	lsls	r3, r3, #3
 80022a8:	3332      	adds	r3, #50	@ 0x32
 80022aa:	fbb3 f3f2 	udiv	r3, r3, r2
 80022ae:	f003 0207 	and.w	r2, r3, #7
 80022b2:	005b      	lsls	r3, r3, #1
 80022b4:	eb02 1201 	add.w	r2, r2, r1, lsl #4
 80022b8:	f403 73f8 	and.w	r3, r3, #496	@ 0x1f0
 80022bc:	4413      	add	r3, r2
 80022be:	60a3      	str	r3, [r4, #8]
 80022c0:	bd38      	pop	{r3, r4, r5, pc}
 80022c2:	f7ff facd 	bl	8001860 <HAL_RCC_GetPCLK1Freq>
 80022c6:	e7d9      	b.n	800227c <UART_SetConfig+0x4c>
 80022c8:	009a      	lsls	r2, r3, #2
 80022ca:	0f9b      	lsrs	r3, r3, #30
 80022cc:	f7fd fff8 	bl	80002c0 <__aeabi_uldivmod>
 80022d0:	2264      	movs	r2, #100	@ 0x64
 80022d2:	fbb0 f1f2 	udiv	r1, r0, r2
 80022d6:	fb02 0311 	mls	r3, r2, r1, r0
 80022da:	011b      	lsls	r3, r3, #4
 80022dc:	3332      	adds	r3, #50	@ 0x32
 80022de:	fbb3 f3f2 	udiv	r3, r3, r2
 80022e2:	eb03 1301 	add.w	r3, r3, r1, lsl #4
 80022e6:	e7ea      	b.n	80022be <UART_SetConfig+0x8e>
 80022e8:	40011000 	.word	0x40011000

080022ec <UART_WaitOnFlagUntilTimeout.constprop.0>:
 80022ec:	b5f7      	push	{r0, r1, r2, r4, r5, r6, r7, lr}
 80022ee:	4605      	mov	r5, r0
 80022f0:	460c      	mov	r4, r1
 80022f2:	4617      	mov	r7, r2
 80022f4:	461e      	mov	r6, r3
 80022f6:	682a      	ldr	r2, [r5, #0]
 80022f8:	6813      	ldr	r3, [r2, #0]
 80022fa:	ea34 0303 	bics.w	r3, r4, r3
 80022fe:	d101      	bne.n	8002304 <UART_WaitOnFlagUntilTimeout.constprop.0+0x18>
 8002300:	2000      	movs	r0, #0
 8002302:	e021      	b.n	8002348 <UART_WaitOnFlagUntilTimeout.constprop.0+0x5c>
 8002304:	1c70      	adds	r0, r6, #1
 8002306:	d0f7      	beq.n	80022f8 <UART_WaitOnFlagUntilTimeout.constprop.0+0xc>
 8002308:	f7fe fe68 	bl	8000fdc <HAL_GetTick>
 800230c:	1bc0      	subs	r0, r0, r7
 800230e:	4286      	cmp	r6, r0
 8002310:	d31c      	bcc.n	800234c <UART_WaitOnFlagUntilTimeout.constprop.0+0x60>
 8002312:	b1de      	cbz	r6, 800234c <UART_WaitOnFlagUntilTimeout.constprop.0+0x60>
 8002314:	682b      	ldr	r3, [r5, #0]
 8002316:	68da      	ldr	r2, [r3, #12]
 8002318:	0751      	lsls	r1, r2, #29
 800231a:	d5ec      	bpl.n	80022f6 <UART_WaitOnFlagUntilTimeout.constprop.0+0xa>
 800231c:	2c80      	cmp	r4, #128	@ 0x80
 800231e:	d0ea      	beq.n	80022f6 <UART_WaitOnFlagUntilTimeout.constprop.0+0xa>
 8002320:	2c40      	cmp	r4, #64	@ 0x40
 8002322:	d0e8      	beq.n	80022f6 <UART_WaitOnFlagUntilTimeout.constprop.0+0xa>
 8002324:	681a      	ldr	r2, [r3, #0]
 8002326:	0712      	lsls	r2, r2, #28
 8002328:	d5e5      	bpl.n	80022f6 <UART_WaitOnFlagUntilTimeout.constprop.0+0xa>
 800232a:	2400      	movs	r4, #0
 800232c:	9401      	str	r4, [sp, #4]
 800232e:	681a      	ldr	r2, [r3, #0]
 8002330:	9201      	str	r2, [sp, #4]
 8002332:	685b      	ldr	r3, [r3, #4]
 8002334:	9301      	str	r3, [sp, #4]
 8002336:	4628      	mov	r0, r5
 8002338:	9b01      	ldr	r3, [sp, #4]
 800233a:	f7ff ff4b 	bl	80021d4 <UART_EndRxTransfer>
 800233e:	2308      	movs	r3, #8
 8002340:	646b      	str	r3, [r5, #68]	@ 0x44
 8002342:	f885 4040 	strb.w	r4, [r5, #64]	@ 0x40
 8002346:	2001      	movs	r0, #1
 8002348:	b003      	add	sp, #12
 800234a:	bdf0      	pop	{r4, r5, r6, r7, pc}
 800234c:	2003      	movs	r0, #3
 800234e:	e7fb      	b.n	8002348 <UART_WaitOnFlagUntilTimeout.constprop.0+0x5c>

08002350 <HAL_UART_Init>:
 8002350:	b510      	push	{r4, lr}
 8002352:	4604      	mov	r4, r0
 8002354:	b348      	cbz	r0, 80023aa <HAL_UART_Init+0x5a>
 8002356:	f890 3041 	ldrb.w	r3, [r0, #65]	@ 0x41
 800235a:	f003 02ff 	and.w	r2, r3, #255	@ 0xff
 800235e:	b91b      	cbnz	r3, 8002368 <HAL_UART_Init+0x18>
 8002360:	f880 2040 	strb.w	r2, [r0, #64]	@ 0x40
 8002364:	f7fe fd50 	bl	8000e08 <HAL_UART_MspInit>
 8002368:	6822      	ldr	r2, [r4, #0]
 800236a:	2324      	movs	r3, #36	@ 0x24
 800236c:	f884 3041 	strb.w	r3, [r4, #65]	@ 0x41
 8002370:	68d3      	ldr	r3, [r2, #12]
 8002372:	f423 5300 	bic.w	r3, r3, #8192	@ 0x2000
 8002376:	60d3      	str	r3, [r2, #12]
 8002378:	4620      	mov	r0, r4
 800237a:	f7ff ff59 	bl	8002230 <UART_SetConfig>
 800237e:	6823      	ldr	r3, [r4, #0]
 8002380:	691a      	ldr	r2, [r3, #16]
 8002382:	f422 4290 	bic.w	r2, r2, #18432	@ 0x4800
 8002386:	611a      	str	r2, [r3, #16]
 8002388:	695a      	ldr	r2, [r3, #20]
 800238a:	f022 022a 	bic.w	r2, r2, #42	@ 0x2a
 800238e:	615a      	str	r2, [r3, #20]
 8002390:	68da      	ldr	r2, [r3, #12]
 8002392:	f442 5200 	orr.w	r2, r2, #8192	@ 0x2000
 8002396:	60da      	str	r2, [r3, #12]
 8002398:	2000      	movs	r0, #0
 800239a:	2320      	movs	r3, #32
 800239c:	6460      	str	r0, [r4, #68]	@ 0x44
 800239e:	f884 3041 	strb.w	r3, [r4, #65]	@ 0x41
 80023a2:	f884 3042 	strb.w	r3, [r4, #66]	@ 0x42
 80023a6:	6360      	str	r0, [r4, #52]	@ 0x34
 80023a8:	bd10      	pop	{r4, pc}
 80023aa:	2001      	movs	r0, #1
 80023ac:	e7fc      	b.n	80023a8 <HAL_UART_Init+0x58>

080023ae <HAL_UART_Transmit>:
 80023ae:	e92d 43f8 	stmdb	sp!, {r3, r4, r5, r6, r7, r8, r9, lr}
 80023b2:	4698      	mov	r8, r3
 80023b4:	f890 3041 	ldrb.w	r3, [r0, #65]	@ 0x41
 80023b8:	2b20      	cmp	r3, #32
 80023ba:	4604      	mov	r4, r0
 80023bc:	460e      	mov	r6, r1
 80023be:	4617      	mov	r7, r2
 80023c0:	d13f      	bne.n	8002442 <HAL_UART_Transmit+0x94>
 80023c2:	2900      	cmp	r1, #0
 80023c4:	d03f      	beq.n	8002446 <HAL_UART_Transmit+0x98>
 80023c6:	2a00      	cmp	r2, #0
 80023c8:	d03d      	beq.n	8002446 <HAL_UART_Transmit+0x98>
 80023ca:	2321      	movs	r3, #33	@ 0x21
 80023cc:	2500      	movs	r5, #0
 80023ce:	6445      	str	r5, [r0, #68]	@ 0x44
 80023d0:	f880 3041 	strb.w	r3, [r0, #65]	@ 0x41
 80023d4:	f7fe fe02 	bl	8000fdc <HAL_GetTick>
 80023d8:	68a3      	ldr	r3, [r4, #8]
 80023da:	84a7      	strh	r7, [r4, #36]	@ 0x24
 80023dc:	f5b3 5f80 	cmp.w	r3, #4096	@ 0x1000
 80023e0:	4681      	mov	r9, r0
 80023e2:	84e7      	strh	r7, [r4, #38]	@ 0x26
 80023e4:	d103      	bne.n	80023ee <HAL_UART_Transmit+0x40>
 80023e6:	6923      	ldr	r3, [r4, #16]
 80023e8:	b90b      	cbnz	r3, 80023ee <HAL_UART_Transmit+0x40>
 80023ea:	4635      	mov	r5, r6
 80023ec:	461e      	mov	r6, r3
 80023ee:	8ce3      	ldrh	r3, [r4, #38]	@ 0x26
 80023f0:	b29b      	uxth	r3, r3
 80023f2:	b953      	cbnz	r3, 800240a <HAL_UART_Transmit+0x5c>
 80023f4:	4643      	mov	r3, r8
 80023f6:	464a      	mov	r2, r9
 80023f8:	2140      	movs	r1, #64	@ 0x40
 80023fa:	4620      	mov	r0, r4
 80023fc:	f7ff ff76 	bl	80022ec <UART_WaitOnFlagUntilTimeout.constprop.0>
 8002400:	2320      	movs	r3, #32
 8002402:	b950      	cbnz	r0, 800241a <HAL_UART_Transmit+0x6c>
 8002404:	f884 3041 	strb.w	r3, [r4, #65]	@ 0x41
 8002408:	e00a      	b.n	8002420 <HAL_UART_Transmit+0x72>
 800240a:	4643      	mov	r3, r8
 800240c:	464a      	mov	r2, r9
 800240e:	2180      	movs	r1, #128	@ 0x80
 8002410:	4620      	mov	r0, r4
 8002412:	f7ff ff6b 	bl	80022ec <UART_WaitOnFlagUntilTimeout.constprop.0>
 8002416:	b128      	cbz	r0, 8002424 <HAL_UART_Transmit+0x76>
 8002418:	2320      	movs	r3, #32
 800241a:	f884 3041 	strb.w	r3, [r4, #65]	@ 0x41
 800241e:	2003      	movs	r0, #3
 8002420:	e8bd 83f8 	ldmia.w	sp!, {r3, r4, r5, r6, r7, r8, r9, pc}
 8002424:	6822      	ldr	r2, [r4, #0]
 8002426:	b94e      	cbnz	r6, 800243c <HAL_UART_Transmit+0x8e>
 8002428:	f835 3b02 	ldrh.w	r3, [r5], #2
 800242c:	f3c3 0308 	ubfx	r3, r3, #0, #9
 8002430:	6053      	str	r3, [r2, #4]
 8002432:	8ce1      	ldrh	r1, [r4, #38]	@ 0x26
 8002434:	3901      	subs	r1, #1
 8002436:	b289      	uxth	r1, r1
 8002438:	84e1      	strh	r1, [r4, #38]	@ 0x26
 800243a:	e7d8      	b.n	80023ee <HAL_UART_Transmit+0x40>
 800243c:	f816 3b01 	ldrb.w	r3, [r6], #1
 8002440:	e7f6      	b.n	8002430 <HAL_UART_Transmit+0x82>
 8002442:	2002      	movs	r0, #2
 8002444:	e7ec      	b.n	8002420 <HAL_UART_Transmit+0x72>
 8002446:	2001      	movs	r0, #1
 8002448:	e7ea      	b.n	8002420 <HAL_UART_Transmit+0x72>
	...

0800244c <sniprintf>:
 800244c:	b40c      	push	{r2, r3}
 800244e:	b530      	push	{r4, r5, lr}
 8002450:	4b17      	ldr	r3, [pc, #92]	@ (80024b0 <sniprintf+0x64>)
 8002452:	1e0c      	subs	r4, r1, #0
 8002454:	681d      	ldr	r5, [r3, #0]
 8002456:	b09d      	sub	sp, #116	@ 0x74
 8002458:	da08      	bge.n	800246c <sniprintf+0x20>
 800245a:	238b      	movs	r3, #139	@ 0x8b
 800245c:	602b      	str	r3, [r5, #0]
 800245e:	f04f 30ff 	mov.w	r0, #4294967295
 8002462:	b01d      	add	sp, #116	@ 0x74
 8002464:	e8bd 4030 	ldmia.w	sp!, {r4, r5, lr}
 8002468:	b002      	add	sp, #8
 800246a:	4770      	bx	lr
 800246c:	f44f 7302 	mov.w	r3, #520	@ 0x208
 8002470:	f8ad 3014 	strh.w	r3, [sp, #20]
 8002474:	bf14      	ite	ne
 8002476:	f104 33ff 	addne.w	r3, r4, #4294967295
 800247a:	4623      	moveq	r3, r4
 800247c:	9304      	str	r3, [sp, #16]
 800247e:	9307      	str	r3, [sp, #28]
 8002480:	f64f 73ff 	movw	r3, #65535	@ 0xffff
 8002484:	9002      	str	r0, [sp, #8]
 8002486:	9006      	str	r0, [sp, #24]
 8002488:	f8ad 3016 	strh.w	r3, [sp, #22]
 800248c:	9a20      	ldr	r2, [sp, #128]	@ 0x80
 800248e:	ab21      	add	r3, sp, #132	@ 0x84
 8002490:	a902      	add	r1, sp, #8
 8002492:	4628      	mov	r0, r5
 8002494:	9301      	str	r3, [sp, #4]
 8002496:	f000 f995 	bl	80027c4 <_svfiprintf_r>
 800249a:	1c43      	adds	r3, r0, #1
 800249c:	bfbc      	itt	lt
 800249e:	238b      	movlt	r3, #139	@ 0x8b
 80024a0:	602b      	strlt	r3, [r5, #0]
 80024a2:	2c00      	cmp	r4, #0
 80024a4:	d0dd      	beq.n	8002462 <sniprintf+0x16>
 80024a6:	9b02      	ldr	r3, [sp, #8]
 80024a8:	2200      	movs	r2, #0
 80024aa:	701a      	strb	r2, [r3, #0]
 80024ac:	e7d9      	b.n	8002462 <sniprintf+0x16>
 80024ae:	bf00      	nop
 80024b0:	20000014 	.word	0x20000014

080024b4 <memset>:
 80024b4:	4402      	add	r2, r0
 80024b6:	4603      	mov	r3, r0
 80024b8:	4293      	cmp	r3, r2
 80024ba:	d100      	bne.n	80024be <memset+0xa>
 80024bc:	4770      	bx	lr
 80024be:	f803 1b01 	strb.w	r1, [r3], #1
 80024c2:	e7f9      	b.n	80024b8 <memset+0x4>

080024c4 <__errno>:
 80024c4:	4b01      	ldr	r3, [pc, #4]	@ (80024cc <__errno+0x8>)
 80024c6:	6818      	ldr	r0, [r3, #0]
 80024c8:	4770      	bx	lr
 80024ca:	bf00      	nop
 80024cc:	20000014 	.word	0x20000014

080024d0 <__libc_init_array>:
 80024d0:	b570      	push	{r4, r5, r6, lr}
 80024d2:	4d0d      	ldr	r5, [pc, #52]	@ (8002508 <__libc_init_array+0x38>)
 80024d4:	4c0d      	ldr	r4, [pc, #52]	@ (800250c <__libc_init_array+0x3c>)
 80024d6:	1b64      	subs	r4, r4, r5
 80024d8:	10a4      	asrs	r4, r4, #2
 80024da:	2600      	movs	r6, #0
 80024dc:	42a6      	cmp	r6, r4
 80024de:	d109      	bne.n	80024f4 <__libc_init_array+0x24>
 80024e0:	4d0b      	ldr	r5, [pc, #44]	@ (8002510 <__libc_init_array+0x40>)
 80024e2:	4c0c      	ldr	r4, [pc, #48]	@ (8002514 <__libc_init_array+0x44>)
 80024e4:	f000 fc66 	bl	8002db4 <_init>
 80024e8:	1b64      	subs	r4, r4, r5
 80024ea:	10a4      	asrs	r4, r4, #2
 80024ec:	2600      	movs	r6, #0
 80024ee:	42a6      	cmp	r6, r4
 80024f0:	d105      	bne.n	80024fe <__libc_init_array+0x2e>
 80024f2:	bd70      	pop	{r4, r5, r6, pc}
 80024f4:	f855 3b04 	ldr.w	r3, [r5], #4
 80024f8:	4798      	blx	r3
 80024fa:	3601      	adds	r6, #1
 80024fc:	e7ee      	b.n	80024dc <__libc_init_array+0xc>
 80024fe:	f855 3b04 	ldr.w	r3, [r5], #4
 8002502:	4798      	blx	r3
 8002504:	3601      	adds	r6, #1
 8002506:	e7f2      	b.n	80024ee <__libc_init_array+0x1e>
 8002508:	08002e30 	.word	0x08002e30
 800250c:	08002e30 	.word	0x08002e30
 8002510:	08002e30 	.word	0x08002e30
 8002514:	08002e34 	.word	0x08002e34

08002518 <__retarget_lock_acquire_recursive>:
 8002518:	4770      	bx	lr

0800251a <__retarget_lock_release_recursive>:
 800251a:	4770      	bx	lr

0800251c <_free_r>:
 800251c:	b538      	push	{r3, r4, r5, lr}
 800251e:	4605      	mov	r5, r0
 8002520:	2900      	cmp	r1, #0
 8002522:	d041      	beq.n	80025a8 <_free_r+0x8c>
 8002524:	f851 3c04 	ldr.w	r3, [r1, #-4]
 8002528:	1f0c      	subs	r4, r1, #4
 800252a:	2b00      	cmp	r3, #0
 800252c:	bfb8      	it	lt
 800252e:	18e4      	addlt	r4, r4, r3
 8002530:	f000 f8e0 	bl	80026f4 <__malloc_lock>
 8002534:	4a1d      	ldr	r2, [pc, #116]	@ (80025ac <_free_r+0x90>)
 8002536:	6813      	ldr	r3, [r2, #0]
 8002538:	b933      	cbnz	r3, 8002548 <_free_r+0x2c>
 800253a:	6063      	str	r3, [r4, #4]
 800253c:	6014      	str	r4, [r2, #0]
 800253e:	4628      	mov	r0, r5
 8002540:	e8bd 4038 	ldmia.w	sp!, {r3, r4, r5, lr}
 8002544:	f000 b8dc 	b.w	8002700 <__malloc_unlock>
 8002548:	42a3      	cmp	r3, r4
 800254a:	d908      	bls.n	800255e <_free_r+0x42>
 800254c:	6820      	ldr	r0, [r4, #0]
 800254e:	1821      	adds	r1, r4, r0
 8002550:	428b      	cmp	r3, r1
 8002552:	bf01      	itttt	eq
 8002554:	6819      	ldreq	r1, [r3, #0]
 8002556:	685b      	ldreq	r3, [r3, #4]
 8002558:	1809      	addeq	r1, r1, r0
 800255a:	6021      	streq	r1, [r4, #0]
 800255c:	e7ed      	b.n	800253a <_free_r+0x1e>
 800255e:	461a      	mov	r2, r3
 8002560:	685b      	ldr	r3, [r3, #4]
 8002562:	b10b      	cbz	r3, 8002568 <_free_r+0x4c>
 8002564:	42a3      	cmp	r3, r4
 8002566:	d9fa      	bls.n	800255e <_free_r+0x42>
 8002568:	6811      	ldr	r1, [r2, #0]
 800256a:	1850      	adds	r0, r2, r1
 800256c:	42a0      	cmp	r0, r4
 800256e:	d10b      	bne.n	8002588 <_free_r+0x6c>
 8002570:	6820      	ldr	r0, [r4, #0]
 8002572:	4401      	add	r1, r0
 8002574:	1850      	adds	r0, r2, r1
 8002576:	4283      	cmp	r3, r0
 8002578:	6011      	str	r1, [r2, #0]
 800257a:	d1e0      	bne.n	800253e <_free_r+0x22>
 800257c:	6818      	ldr	r0, [r3, #0]
 800257e:	685b      	ldr	r3, [r3, #4]
 8002580:	6053      	str	r3, [r2, #4]
 8002582:	4408      	add	r0, r1
 8002584:	6010      	str	r0, [r2, #0]
 8002586:	e7da      	b.n	800253e <_free_r+0x22>
 8002588:	d902      	bls.n	8002590 <_free_r+0x74>
 800258a:	230c      	movs	r3, #12
 800258c:	602b      	str	r3, [r5, #0]
 800258e:	e7d6      	b.n	800253e <_free_r+0x22>
 8002590:	6820      	ldr	r0, [r4, #0]
 8002592:	1821      	adds	r1, r4, r0
 8002594:	428b      	cmp	r3, r1
 8002596:	bf04      	itt	eq
 8002598:	6819      	ldreq	r1, [r3, #0]
 800259a:	685b      	ldreq	r3, [r3, #4]
 800259c:	6063      	str	r3, [r4, #4]
 800259e:	bf04      	itt	eq
 80025a0:	1809      	addeq	r1, r1, r0
 80025a2:	6021      	streq	r1, [r4, #0]
 80025a4:	6054      	str	r4, [r2, #4]
 80025a6:	e7ca      	b.n	800253e <_free_r+0x22>
 80025a8:	bd38      	pop	{r3, r4, r5, pc}
 80025aa:	bf00      	nop
 80025ac:	20000388 	.word	0x20000388

080025b0 <sbrk_aligned>:
 80025b0:	b570      	push	{r4, r5, r6, lr}
 80025b2:	4e0f      	ldr	r6, [pc, #60]	@ (80025f0 <sbrk_aligned+0x40>)
 80025b4:	460c      	mov	r4, r1
 80025b6:	6831      	ldr	r1, [r6, #0]
 80025b8:	4605      	mov	r5, r0
 80025ba:	b911      	cbnz	r1, 80025c2 <sbrk_aligned+0x12>
 80025bc:	f000 fba6 	bl	8002d0c <_sbrk_r>
 80025c0:	6030      	str	r0, [r6, #0]
 80025c2:	4621      	mov	r1, r4
 80025c4:	4628      	mov	r0, r5
 80025c6:	f000 fba1 	bl	8002d0c <_sbrk_r>
 80025ca:	1c43      	adds	r3, r0, #1
 80025cc:	d103      	bne.n	80025d6 <sbrk_aligned+0x26>
 80025ce:	f04f 34ff 	mov.w	r4, #4294967295
 80025d2:	4620      	mov	r0, r4
 80025d4:	bd70      	pop	{r4, r5, r6, pc}
 80025d6:	1cc4      	adds	r4, r0, #3
 80025d8:	f024 0403 	bic.w	r4, r4, #3
 80025dc:	42a0      	cmp	r0, r4
 80025de:	d0f8      	beq.n	80025d2 <sbrk_aligned+0x22>
 80025e0:	1a21      	subs	r1, r4, r0
 80025e2:	4628      	mov	r0, r5
 80025e4:	f000 fb92 	bl	8002d0c <_sbrk_r>
 80025e8:	3001      	adds	r0, #1
 80025ea:	d1f2      	bne.n	80025d2 <sbrk_aligned+0x22>
 80025ec:	e7ef      	b.n	80025ce <sbrk_aligned+0x1e>
 80025ee:	bf00      	nop
 80025f0:	20000384 	.word	0x20000384

080025f4 <_malloc_r>:
 80025f4:	e92d 43f8 	stmdb	sp!, {r3, r4, r5, r6, r7, r8, r9, lr}
 80025f8:	1ccd      	adds	r5, r1, #3
 80025fa:	f025 0503 	bic.w	r5, r5, #3
 80025fe:	3508      	adds	r5, #8
 8002600:	2d0c      	cmp	r5, #12
 8002602:	bf38      	it	cc
 8002604:	250c      	movcc	r5, #12
 8002606:	2d00      	cmp	r5, #0
 8002608:	4606      	mov	r6, r0
 800260a:	db01      	blt.n	8002610 <_malloc_r+0x1c>
 800260c:	42a9      	cmp	r1, r5
 800260e:	d904      	bls.n	800261a <_malloc_r+0x26>
 8002610:	230c      	movs	r3, #12
 8002612:	6033      	str	r3, [r6, #0]
 8002614:	2000      	movs	r0, #0
 8002616:	e8bd 83f8 	ldmia.w	sp!, {r3, r4, r5, r6, r7, r8, r9, pc}
 800261a:	f8df 80d4 	ldr.w	r8, [pc, #212]	@ 80026f0 <_malloc_r+0xfc>
 800261e:	f000 f869 	bl	80026f4 <__malloc_lock>
 8002622:	f8d8 3000 	ldr.w	r3, [r8]
 8002626:	461c      	mov	r4, r3
 8002628:	bb44      	cbnz	r4, 800267c <_malloc_r+0x88>
 800262a:	4629      	mov	r1, r5
 800262c:	4630      	mov	r0, r6
 800262e:	f7ff ffbf 	bl	80025b0 <sbrk_aligned>
 8002632:	1c43      	adds	r3, r0, #1
 8002634:	4604      	mov	r4, r0
 8002636:	d158      	bne.n	80026ea <_malloc_r+0xf6>
 8002638:	f8d8 4000 	ldr.w	r4, [r8]
 800263c:	4627      	mov	r7, r4
 800263e:	2f00      	cmp	r7, #0
 8002640:	d143      	bne.n	80026ca <_malloc_r+0xd6>
 8002642:	2c00      	cmp	r4, #0
 8002644:	d04b      	beq.n	80026de <_malloc_r+0xea>
 8002646:	6823      	ldr	r3, [r4, #0]
 8002648:	4639      	mov	r1, r7
 800264a:	4630      	mov	r0, r6
 800264c:	eb04 0903 	add.w	r9, r4, r3
 8002650:	f000 fb5c 	bl	8002d0c <_sbrk_r>
 8002654:	4581      	cmp	r9, r0
 8002656:	d142      	bne.n	80026de <_malloc_r+0xea>
 8002658:	6821      	ldr	r1, [r4, #0]
 800265a:	1a6d      	subs	r5, r5, r1
 800265c:	4629      	mov	r1, r5
 800265e:	4630      	mov	r0, r6
 8002660:	f7ff ffa6 	bl	80025b0 <sbrk_aligned>
 8002664:	3001      	adds	r0, #1
 8002666:	d03a      	beq.n	80026de <_malloc_r+0xea>
 8002668:	6823      	ldr	r3, [r4, #0]
 800266a:	442b      	add	r3, r5
 800266c:	6023      	str	r3, [r4, #0]
 800266e:	f8d8 3000 	ldr.w	r3, [r8]
 8002672:	685a      	ldr	r2, [r3, #4]
 8002674:	bb62      	cbnz	r2, 80026d0 <_malloc_r+0xdc>
 8002676:	f8c8 7000 	str.w	r7, [r8]
 800267a:	e00f      	b.n	800269c <_malloc_r+0xa8>
 800267c:	6822      	ldr	r2, [r4, #0]
 800267e:	1b52      	subs	r2, r2, r5
 8002680:	d420      	bmi.n	80026c4 <_malloc_r+0xd0>
 8002682:	2a0b      	cmp	r2, #11
 8002684:	d917      	bls.n	80026b6 <_malloc_r+0xc2>
 8002686:	1961      	adds	r1, r4, r5
 8002688:	42a3      	cmp	r3, r4
 800268a:	6025      	str	r5, [r4, #0]
 800268c:	bf18      	it	ne
 800268e:	6059      	strne	r1, [r3, #4]
 8002690:	6863      	ldr	r3, [r4, #4]
 8002692:	bf08      	it	eq
 8002694:	f8c8 1000 	streq.w	r1, [r8]
 8002698:	5162      	str	r2, [r4, r5]
 800269a:	604b      	str	r3, [r1, #4]
 800269c:	4630      	mov	r0, r6
 800269e:	f000 f82f 	bl	8002700 <__malloc_unlock>
 80026a2:	f104 000b 	add.w	r0, r4, #11
 80026a6:	1d23      	adds	r3, r4, #4
 80026a8:	f020 0007 	bic.w	r0, r0, #7
 80026ac:	1ac2      	subs	r2, r0, r3
 80026ae:	bf1c      	itt	ne
 80026b0:	1a1b      	subne	r3, r3, r0
 80026b2:	50a3      	strne	r3, [r4, r2]
 80026b4:	e7af      	b.n	8002616 <_malloc_r+0x22>
 80026b6:	6862      	ldr	r2, [r4, #4]
 80026b8:	42a3      	cmp	r3, r4
 80026ba:	bf0c      	ite	eq
 80026bc:	f8c8 2000 	streq.w	r2, [r8]
 80026c0:	605a      	strne	r2, [r3, #4]
 80026c2:	e7eb      	b.n	800269c <_malloc_r+0xa8>
 80026c4:	4623      	mov	r3, r4
 80026c6:	6864      	ldr	r4, [r4, #4]
 80026c8:	e7ae      	b.n	8002628 <_malloc_r+0x34>
 80026ca:	463c      	mov	r4, r7
 80026cc:	687f      	ldr	r7, [r7, #4]
 80026ce:	e7b6      	b.n	800263e <_malloc_r+0x4a>
 80026d0:	461a      	mov	r2, r3
 80026d2:	685b      	ldr	r3, [r3, #4]
 80026d4:	42a3      	cmp	r3, r4
 80026d6:	d1fb      	bne.n	80026d0 <_malloc_r+0xdc>
 80026d8:	2300      	movs	r3, #0
 80026da:	6053      	str	r3, [r2, #4]
 80026dc:	e7de      	b.n	800269c <_malloc_r+0xa8>
 80026de:	230c      	movs	r3, #12
 80026e0:	6033      	str	r3, [r6, #0]
 80026e2:	4630      	mov	r0, r6
 80026e4:	f000 f80c 	bl	8002700 <__malloc_unlock>
 80026e8:	e794      	b.n	8002614 <_malloc_r+0x20>
 80026ea:	6005      	str	r5, [r0, #0]
 80026ec:	e7d6      	b.n	800269c <_malloc_r+0xa8>
 80026ee:	bf00      	nop
 80026f0:	20000388 	.word	0x20000388

080026f4 <__malloc_lock>:
 80026f4:	4801      	ldr	r0, [pc, #4]	@ (80026fc <__malloc_lock+0x8>)
 80026f6:	f7ff bf0f 	b.w	8002518 <__retarget_lock_acquire_recursive>
 80026fa:	bf00      	nop
 80026fc:	20000380 	.word	0x20000380

08002700 <__malloc_unlock>:
 8002700:	4801      	ldr	r0, [pc, #4]	@ (8002708 <__malloc_unlock+0x8>)
 8002702:	f7ff bf0a 	b.w	800251a <__retarget_lock_release_recursive>
 8002706:	bf00      	nop
 8002708:	20000380 	.word	0x20000380

0800270c <__ssputs_r>:
 800270c:	e92d 47f0 	stmdb	sp!, {r4, r5, r6, r7, r8, r9, sl, lr}
 8002710:	688e      	ldr	r6, [r1, #8]
 8002712:	461f      	mov	r7, r3
 8002714:	42be      	cmp	r6, r7
 8002716:	680b      	ldr	r3, [r1, #0]
 8002718:	4682      	mov	sl, r0
 800271a:	460c      	mov	r4, r1
 800271c:	4690      	mov	r8, r2
 800271e:	d82d      	bhi.n	800277c <__ssputs_r+0x70>
 8002720:	f9b1 200c 	ldrsh.w	r2, [r1, #12]
 8002724:	f412 6f90 	tst.w	r2, #1152	@ 0x480
 8002728:	d026      	beq.n	8002778 <__ssputs_r+0x6c>
 800272a:	6965      	ldr	r5, [r4, #20]
 800272c:	6909      	ldr	r1, [r1, #16]
 800272e:	eb05 0545 	add.w	r5, r5, r5, lsl #1
 8002732:	eba3 0901 	sub.w	r9, r3, r1
 8002736:	eb05 75d5 	add.w	r5, r5, r5, lsr #31
 800273a:	1c7b      	adds	r3, r7, #1
 800273c:	444b      	add	r3, r9
 800273e:	106d      	asrs	r5, r5, #1
 8002740:	429d      	cmp	r5, r3
 8002742:	bf38      	it	cc
 8002744:	461d      	movcc	r5, r3
 8002746:	0553      	lsls	r3, r2, #21
 8002748:	d527      	bpl.n	800279a <__ssputs_r+0x8e>
 800274a:	4629      	mov	r1, r5
 800274c:	f7ff ff52 	bl	80025f4 <_malloc_r>
 8002750:	4606      	mov	r6, r0
 8002752:	b360      	cbz	r0, 80027ae <__ssputs_r+0xa2>
 8002754:	6921      	ldr	r1, [r4, #16]
 8002756:	464a      	mov	r2, r9
 8002758:	f000 fae8 	bl	8002d2c <memcpy>
 800275c:	89a3      	ldrh	r3, [r4, #12]
 800275e:	f423 6390 	bic.w	r3, r3, #1152	@ 0x480
 8002762:	f043 0380 	orr.w	r3, r3, #128	@ 0x80
 8002766:	81a3      	strh	r3, [r4, #12]
 8002768:	6126      	str	r6, [r4, #16]
 800276a:	6165      	str	r5, [r4, #20]
 800276c:	444e      	add	r6, r9
 800276e:	eba5 0509 	sub.w	r5, r5, r9
 8002772:	6026      	str	r6, [r4, #0]
 8002774:	60a5      	str	r5, [r4, #8]
 8002776:	463e      	mov	r6, r7
 8002778:	42be      	cmp	r6, r7
 800277a:	d900      	bls.n	800277e <__ssputs_r+0x72>
 800277c:	463e      	mov	r6, r7
 800277e:	6820      	ldr	r0, [r4, #0]
 8002780:	4632      	mov	r2, r6
 8002782:	4641      	mov	r1, r8
 8002784:	f000 faa8 	bl	8002cd8 <memmove>
 8002788:	68a3      	ldr	r3, [r4, #8]
 800278a:	1b9b      	subs	r3, r3, r6
 800278c:	60a3      	str	r3, [r4, #8]
 800278e:	6823      	ldr	r3, [r4, #0]
 8002790:	4433      	add	r3, r6
 8002792:	6023      	str	r3, [r4, #0]
 8002794:	2000      	movs	r0, #0
 8002796:	e8bd 87f0 	ldmia.w	sp!, {r4, r5, r6, r7, r8, r9, sl, pc}
 800279a:	462a      	mov	r2, r5
 800279c:	f000 fad4 	bl	8002d48 <_realloc_r>
 80027a0:	4606      	mov	r6, r0
 80027a2:	2800      	cmp	r0, #0
 80027a4:	d1e0      	bne.n	8002768 <__ssputs_r+0x5c>
 80027a6:	6921      	ldr	r1, [r4, #16]
 80027a8:	4650      	mov	r0, sl
 80027aa:	f7ff feb7 	bl	800251c <_free_r>
 80027ae:	230c      	movs	r3, #12
 80027b0:	f8ca 3000 	str.w	r3, [sl]
 80027b4:	89a3      	ldrh	r3, [r4, #12]
 80027b6:	f043 0340 	orr.w	r3, r3, #64	@ 0x40
 80027ba:	81a3      	strh	r3, [r4, #12]
 80027bc:	f04f 30ff 	mov.w	r0, #4294967295
 80027c0:	e7e9      	b.n	8002796 <__ssputs_r+0x8a>
	...

080027c4 <_svfiprintf_r>:
 80027c4:	e92d 4ff0 	stmdb	sp!, {r4, r5, r6, r7, r8, r9, sl, fp, lr}
 80027c8:	4698      	mov	r8, r3
 80027ca:	898b      	ldrh	r3, [r1, #12]
 80027cc:	061b      	lsls	r3, r3, #24
 80027ce:	b09d      	sub	sp, #116	@ 0x74
 80027d0:	4607      	mov	r7, r0
 80027d2:	460d      	mov	r5, r1
 80027d4:	4614      	mov	r4, r2
 80027d6:	d510      	bpl.n	80027fa <_svfiprintf_r+0x36>
 80027d8:	690b      	ldr	r3, [r1, #16]
 80027da:	b973      	cbnz	r3, 80027fa <_svfiprintf_r+0x36>
 80027dc:	2140      	movs	r1, #64	@ 0x40
 80027de:	f7ff ff09 	bl	80025f4 <_malloc_r>
 80027e2:	6028      	str	r0, [r5, #0]
 80027e4:	6128      	str	r0, [r5, #16]
 80027e6:	b930      	cbnz	r0, 80027f6 <_svfiprintf_r+0x32>
 80027e8:	230c      	movs	r3, #12
 80027ea:	603b      	str	r3, [r7, #0]
 80027ec:	f04f 30ff 	mov.w	r0, #4294967295
 80027f0:	b01d      	add	sp, #116	@ 0x74
 80027f2:	e8bd 8ff0 	ldmia.w	sp!, {r4, r5, r6, r7, r8, r9, sl, fp, pc}
 80027f6:	2340      	movs	r3, #64	@ 0x40
 80027f8:	616b      	str	r3, [r5, #20]
 80027fa:	2300      	movs	r3, #0
 80027fc:	9309      	str	r3, [sp, #36]	@ 0x24
 80027fe:	2320      	movs	r3, #32
 8002800:	f88d 3029 	strb.w	r3, [sp, #41]	@ 0x29
 8002804:	f8cd 800c 	str.w	r8, [sp, #12]
 8002808:	2330      	movs	r3, #48	@ 0x30
 800280a:	f8df 819c 	ldr.w	r8, [pc, #412]	@ 80029a8 <_svfiprintf_r+0x1e4>
 800280e:	f88d 302a 	strb.w	r3, [sp, #42]	@ 0x2a
 8002812:	f04f 0901 	mov.w	r9, #1
 8002816:	4623      	mov	r3, r4
 8002818:	469a      	mov	sl, r3
 800281a:	f813 2b01 	ldrb.w	r2, [r3], #1
 800281e:	b10a      	cbz	r2, 8002824 <_svfiprintf_r+0x60>
 8002820:	2a25      	cmp	r2, #37	@ 0x25
 8002822:	d1f9      	bne.n	8002818 <_svfiprintf_r+0x54>
 8002824:	ebba 0b04 	subs.w	fp, sl, r4
 8002828:	d00b      	beq.n	8002842 <_svfiprintf_r+0x7e>
 800282a:	465b      	mov	r3, fp
 800282c:	4622      	mov	r2, r4
 800282e:	4629      	mov	r1, r5
 8002830:	4638      	mov	r0, r7
 8002832:	f7ff ff6b 	bl	800270c <__ssputs_r>
 8002836:	3001      	adds	r0, #1
 8002838:	f000 80a7 	beq.w	800298a <_svfiprintf_r+0x1c6>
 800283c:	9a09      	ldr	r2, [sp, #36]	@ 0x24
 800283e:	445a      	add	r2, fp
 8002840:	9209      	str	r2, [sp, #36]	@ 0x24
 8002842:	f89a 3000 	ldrb.w	r3, [sl]
 8002846:	2b00      	cmp	r3, #0
 8002848:	f000 809f 	beq.w	800298a <_svfiprintf_r+0x1c6>
 800284c:	2300      	movs	r3, #0
 800284e:	f04f 32ff 	mov.w	r2, #4294967295
 8002852:	e9cd 2305 	strd	r2, r3, [sp, #20]
 8002856:	f10a 0a01 	add.w	sl, sl, #1
 800285a:	9304      	str	r3, [sp, #16]
 800285c:	9307      	str	r3, [sp, #28]
 800285e:	f88d 3053 	strb.w	r3, [sp, #83]	@ 0x53
 8002862:	931a      	str	r3, [sp, #104]	@ 0x68
 8002864:	4654      	mov	r4, sl
 8002866:	2205      	movs	r2, #5
 8002868:	f814 1b01 	ldrb.w	r1, [r4], #1
 800286c:	484e      	ldr	r0, [pc, #312]	@ (80029a8 <_svfiprintf_r+0x1e4>)
 800286e:	f7fd fcd7 	bl	8000220 <memchr>
 8002872:	9a04      	ldr	r2, [sp, #16]
 8002874:	b9d8      	cbnz	r0, 80028ae <_svfiprintf_r+0xea>
 8002876:	06d0      	lsls	r0, r2, #27
 8002878:	bf44      	itt	mi
 800287a:	2320      	movmi	r3, #32
 800287c:	f88d 3053 	strbmi.w	r3, [sp, #83]	@ 0x53
 8002880:	0711      	lsls	r1, r2, #28
 8002882:	bf44      	itt	mi
 8002884:	232b      	movmi	r3, #43	@ 0x2b
 8002886:	f88d 3053 	strbmi.w	r3, [sp, #83]	@ 0x53
 800288a:	f89a 3000 	ldrb.w	r3, [sl]
 800288e:	2b2a      	cmp	r3, #42	@ 0x2a
 8002890:	d015      	beq.n	80028be <_svfiprintf_r+0xfa>
 8002892:	9a07      	ldr	r2, [sp, #28]
 8002894:	4654      	mov	r4, sl
 8002896:	2000      	movs	r0, #0
 8002898:	f04f 0c0a 	mov.w	ip, #10
 800289c:	4621      	mov	r1, r4
 800289e:	f811 3b01 	ldrb.w	r3, [r1], #1
 80028a2:	3b30      	subs	r3, #48	@ 0x30
 80028a4:	2b09      	cmp	r3, #9
 80028a6:	d94b      	bls.n	8002940 <_svfiprintf_r+0x17c>
 80028a8:	b1b0      	cbz	r0, 80028d8 <_svfiprintf_r+0x114>
 80028aa:	9207      	str	r2, [sp, #28]
 80028ac:	e014      	b.n	80028d8 <_svfiprintf_r+0x114>
 80028ae:	eba0 0308 	sub.w	r3, r0, r8
 80028b2:	fa09 f303 	lsl.w	r3, r9, r3
 80028b6:	4313      	orrs	r3, r2
 80028b8:	9304      	str	r3, [sp, #16]
 80028ba:	46a2      	mov	sl, r4
 80028bc:	e7d2      	b.n	8002864 <_svfiprintf_r+0xa0>
 80028be:	9b03      	ldr	r3, [sp, #12]
 80028c0:	1d19      	adds	r1, r3, #4
 80028c2:	681b      	ldr	r3, [r3, #0]
 80028c4:	9103      	str	r1, [sp, #12]
 80028c6:	2b00      	cmp	r3, #0
 80028c8:	bfbb      	ittet	lt
 80028ca:	425b      	neglt	r3, r3
 80028cc:	f042 0202 	orrlt.w	r2, r2, #2
 80028d0:	9307      	strge	r3, [sp, #28]
 80028d2:	9307      	strlt	r3, [sp, #28]
 80028d4:	bfb8      	it	lt
 80028d6:	9204      	strlt	r2, [sp, #16]
 80028d8:	7823      	ldrb	r3, [r4, #0]
 80028da:	2b2e      	cmp	r3, #46	@ 0x2e
 80028dc:	d10a      	bne.n	80028f4 <_svfiprintf_r+0x130>
 80028de:	7863      	ldrb	r3, [r4, #1]
 80028e0:	2b2a      	cmp	r3, #42	@ 0x2a
 80028e2:	d132      	bne.n	800294a <_svfiprintf_r+0x186>
 80028e4:	9b03      	ldr	r3, [sp, #12]
 80028e6:	1d1a      	adds	r2, r3, #4
 80028e8:	681b      	ldr	r3, [r3, #0]
 80028ea:	9203      	str	r2, [sp, #12]
 80028ec:	ea43 73e3 	orr.w	r3, r3, r3, asr #31
 80028f0:	3402      	adds	r4, #2
 80028f2:	9305      	str	r3, [sp, #20]
 80028f4:	f8df a0c0 	ldr.w	sl, [pc, #192]	@ 80029b8 <_svfiprintf_r+0x1f4>
 80028f8:	7821      	ldrb	r1, [r4, #0]
 80028fa:	2203      	movs	r2, #3
 80028fc:	4650      	mov	r0, sl
 80028fe:	f7fd fc8f 	bl	8000220 <memchr>
 8002902:	b138      	cbz	r0, 8002914 <_svfiprintf_r+0x150>
 8002904:	9b04      	ldr	r3, [sp, #16]
 8002906:	eba0 000a 	sub.w	r0, r0, sl
 800290a:	2240      	movs	r2, #64	@ 0x40
 800290c:	4082      	lsls	r2, r0
 800290e:	4313      	orrs	r3, r2
 8002910:	3401      	adds	r4, #1
 8002912:	9304      	str	r3, [sp, #16]
 8002914:	f814 1b01 	ldrb.w	r1, [r4], #1
 8002918:	4824      	ldr	r0, [pc, #144]	@ (80029ac <_svfiprintf_r+0x1e8>)
 800291a:	f88d 1028 	strb.w	r1, [sp, #40]	@ 0x28
 800291e:	2206      	movs	r2, #6
 8002920:	f7fd fc7e 	bl	8000220 <memchr>
 8002924:	2800      	cmp	r0, #0
 8002926:	d036      	beq.n	8002996 <_svfiprintf_r+0x1d2>
 8002928:	4b21      	ldr	r3, [pc, #132]	@ (80029b0 <_svfiprintf_r+0x1ec>)
 800292a:	bb1b      	cbnz	r3, 8002974 <_svfiprintf_r+0x1b0>
 800292c:	9b03      	ldr	r3, [sp, #12]
 800292e:	3307      	adds	r3, #7
 8002930:	f023 0307 	bic.w	r3, r3, #7
 8002934:	3308      	adds	r3, #8
 8002936:	9303      	str	r3, [sp, #12]
 8002938:	9b09      	ldr	r3, [sp, #36]	@ 0x24
 800293a:	4433      	add	r3, r6
 800293c:	9309      	str	r3, [sp, #36]	@ 0x24
 800293e:	e76a      	b.n	8002816 <_svfiprintf_r+0x52>
 8002940:	fb0c 3202 	mla	r2, ip, r2, r3
 8002944:	460c      	mov	r4, r1
 8002946:	2001      	movs	r0, #1
 8002948:	e7a8      	b.n	800289c <_svfiprintf_r+0xd8>
 800294a:	2300      	movs	r3, #0
 800294c:	3401      	adds	r4, #1
 800294e:	9305      	str	r3, [sp, #20]
 8002950:	4619      	mov	r1, r3
 8002952:	f04f 0c0a 	mov.w	ip, #10
 8002956:	4620      	mov	r0, r4
 8002958:	f810 2b01 	ldrb.w	r2, [r0], #1
 800295c:	3a30      	subs	r2, #48	@ 0x30
 800295e:	2a09      	cmp	r2, #9
 8002960:	d903      	bls.n	800296a <_svfiprintf_r+0x1a6>
 8002962:	2b00      	cmp	r3, #0
 8002964:	d0c6      	beq.n	80028f4 <_svfiprintf_r+0x130>
 8002966:	9105      	str	r1, [sp, #20]
 8002968:	e7c4      	b.n	80028f4 <_svfiprintf_r+0x130>
 800296a:	fb0c 2101 	mla	r1, ip, r1, r2
 800296e:	4604      	mov	r4, r0
 8002970:	2301      	movs	r3, #1
 8002972:	e7f0      	b.n	8002956 <_svfiprintf_r+0x192>
 8002974:	ab03      	add	r3, sp, #12
 8002976:	9300      	str	r3, [sp, #0]
 8002978:	462a      	mov	r2, r5
 800297a:	4b0e      	ldr	r3, [pc, #56]	@ (80029b4 <_svfiprintf_r+0x1f0>)
 800297c:	a904      	add	r1, sp, #16
 800297e:	4638      	mov	r0, r7
 8002980:	f3af 8000 	nop.w
 8002984:	1c42      	adds	r2, r0, #1
 8002986:	4606      	mov	r6, r0
 8002988:	d1d6      	bne.n	8002938 <_svfiprintf_r+0x174>
 800298a:	89ab      	ldrh	r3, [r5, #12]
 800298c:	065b      	lsls	r3, r3, #25
 800298e:	f53f af2d 	bmi.w	80027ec <_svfiprintf_r+0x28>
 8002992:	9809      	ldr	r0, [sp, #36]	@ 0x24
 8002994:	e72c      	b.n	80027f0 <_svfiprintf_r+0x2c>
 8002996:	ab03      	add	r3, sp, #12
 8002998:	9300      	str	r3, [sp, #0]
 800299a:	462a      	mov	r2, r5
 800299c:	4b05      	ldr	r3, [pc, #20]	@ (80029b4 <_svfiprintf_r+0x1f0>)
 800299e:	a904      	add	r1, sp, #16
 80029a0:	4638      	mov	r0, r7
 80029a2:	f000 f879 	bl	8002a98 <_printf_i>
 80029a6:	e7ed      	b.n	8002984 <_svfiprintf_r+0x1c0>
 80029a8:	08002df2 	.word	0x08002df2
 80029ac:	08002dfc 	.word	0x08002dfc
 80029b0:	00000000 	.word	0x00000000
 80029b4:	0800270d 	.word	0x0800270d
 80029b8:	08002df8 	.word	0x08002df8

080029bc <_printf_common>:
 80029bc:	e92d 47f0 	stmdb	sp!, {r4, r5, r6, r7, r8, r9, sl, lr}
 80029c0:	4616      	mov	r6, r2
 80029c2:	4698      	mov	r8, r3
 80029c4:	688a      	ldr	r2, [r1, #8]
 80029c6:	690b      	ldr	r3, [r1, #16]
 80029c8:	f8dd 9020 	ldr.w	r9, [sp, #32]
 80029cc:	4293      	cmp	r3, r2
 80029ce:	bfb8      	it	lt
 80029d0:	4613      	movlt	r3, r2
 80029d2:	6033      	str	r3, [r6, #0]
 80029d4:	f891 2043 	ldrb.w	r2, [r1, #67]	@ 0x43
 80029d8:	4607      	mov	r7, r0
 80029da:	460c      	mov	r4, r1
 80029dc:	b10a      	cbz	r2, 80029e2 <_printf_common+0x26>
 80029de:	3301      	adds	r3, #1
 80029e0:	6033      	str	r3, [r6, #0]
 80029e2:	6823      	ldr	r3, [r4, #0]
 80029e4:	0699      	lsls	r1, r3, #26
 80029e6:	bf42      	ittt	mi
 80029e8:	6833      	ldrmi	r3, [r6, #0]
 80029ea:	3302      	addmi	r3, #2
 80029ec:	6033      	strmi	r3, [r6, #0]
 80029ee:	6825      	ldr	r5, [r4, #0]
 80029f0:	f015 0506 	ands.w	r5, r5, #6
 80029f4:	d106      	bne.n	8002a04 <_printf_common+0x48>
 80029f6:	f104 0a19 	add.w	sl, r4, #25
 80029fa:	68e3      	ldr	r3, [r4, #12]
 80029fc:	6832      	ldr	r2, [r6, #0]
 80029fe:	1a9b      	subs	r3, r3, r2
 8002a00:	42ab      	cmp	r3, r5
 8002a02:	dc26      	bgt.n	8002a52 <_printf_common+0x96>
 8002a04:	f894 3043 	ldrb.w	r3, [r4, #67]	@ 0x43
 8002a08:	6822      	ldr	r2, [r4, #0]
 8002a0a:	3b00      	subs	r3, #0
 8002a0c:	bf18      	it	ne
 8002a0e:	2301      	movne	r3, #1
 8002a10:	0692      	lsls	r2, r2, #26
 8002a12:	d42b      	bmi.n	8002a6c <_printf_common+0xb0>
 8002a14:	f104 0243 	add.w	r2, r4, #67	@ 0x43
 8002a18:	4641      	mov	r1, r8
 8002a1a:	4638      	mov	r0, r7
 8002a1c:	47c8      	blx	r9
 8002a1e:	3001      	adds	r0, #1
 8002a20:	d01e      	beq.n	8002a60 <_printf_common+0xa4>
 8002a22:	6823      	ldr	r3, [r4, #0]
 8002a24:	6922      	ldr	r2, [r4, #16]
 8002a26:	f003 0306 	and.w	r3, r3, #6
 8002a2a:	2b04      	cmp	r3, #4
 8002a2c:	bf02      	ittt	eq
 8002a2e:	68e5      	ldreq	r5, [r4, #12]
 8002a30:	6833      	ldreq	r3, [r6, #0]
 8002a32:	1aed      	subeq	r5, r5, r3
 8002a34:	68a3      	ldr	r3, [r4, #8]
 8002a36:	bf0c      	ite	eq
 8002a38:	ea25 75e5 	biceq.w	r5, r5, r5, asr #31
 8002a3c:	2500      	movne	r5, #0
 8002a3e:	4293      	cmp	r3, r2
 8002a40:	bfc4      	itt	gt
 8002a42:	1a9b      	subgt	r3, r3, r2
 8002a44:	18ed      	addgt	r5, r5, r3
 8002a46:	2600      	movs	r6, #0
 8002a48:	341a      	adds	r4, #26
 8002a4a:	42b5      	cmp	r5, r6
 8002a4c:	d11a      	bne.n	8002a84 <_printf_common+0xc8>
 8002a4e:	2000      	movs	r0, #0
 8002a50:	e008      	b.n	8002a64 <_printf_common+0xa8>
 8002a52:	2301      	movs	r3, #1
 8002a54:	4652      	mov	r2, sl
 8002a56:	4641      	mov	r1, r8
 8002a58:	4638      	mov	r0, r7
 8002a5a:	47c8      	blx	r9
 8002a5c:	3001      	adds	r0, #1
 8002a5e:	d103      	bne.n	8002a68 <_printf_common+0xac>
 8002a60:	f04f 30ff 	mov.w	r0, #4294967295
 8002a64:	e8bd 87f0 	ldmia.w	sp!, {r4, r5, r6, r7, r8, r9, sl, pc}
 8002a68:	3501      	adds	r5, #1
 8002a6a:	e7c6      	b.n	80029fa <_printf_common+0x3e>
 8002a6c:	18e1      	adds	r1, r4, r3
 8002a6e:	1c5a      	adds	r2, r3, #1
 8002a70:	2030      	movs	r0, #48	@ 0x30
 8002a72:	f881 0043 	strb.w	r0, [r1, #67]	@ 0x43
 8002a76:	4422      	add	r2, r4
 8002a78:	f894 1045 	ldrb.w	r1, [r4, #69]	@ 0x45
 8002a7c:	f882 1043 	strb.w	r1, [r2, #67]	@ 0x43
 8002a80:	3302      	adds	r3, #2
 8002a82:	e7c7      	b.n	8002a14 <_printf_common+0x58>
 8002a84:	2301      	movs	r3, #1
 8002a86:	4622      	mov	r2, r4
 8002a88:	4641      	mov	r1, r8
 8002a8a:	4638      	mov	r0, r7
 8002a8c:	47c8      	blx	r9
 8002a8e:	3001      	adds	r0, #1
 8002a90:	d0e6      	beq.n	8002a60 <_printf_common+0xa4>
 8002a92:	3601      	adds	r6, #1
 8002a94:	e7d9      	b.n	8002a4a <_printf_common+0x8e>
	...

08002a98 <_printf_i>:
 8002a98:	e92d 47ff 	stmdb	sp!, {r0, r1, r2, r3, r4, r5, r6, r7, r8, r9, sl, lr}
 8002a9c:	7e0f      	ldrb	r7, [r1, #24]
 8002a9e:	9e0c      	ldr	r6, [sp, #48]	@ 0x30
 8002aa0:	2f78      	cmp	r7, #120	@ 0x78
 8002aa2:	4691      	mov	r9, r2
 8002aa4:	4680      	mov	r8, r0
 8002aa6:	460c      	mov	r4, r1
 8002aa8:	469a      	mov	sl, r3
 8002aaa:	f101 0243 	add.w	r2, r1, #67	@ 0x43
 8002aae:	d807      	bhi.n	8002ac0 <_printf_i+0x28>
 8002ab0:	2f62      	cmp	r7, #98	@ 0x62
 8002ab2:	d80a      	bhi.n	8002aca <_printf_i+0x32>
 8002ab4:	2f00      	cmp	r7, #0
 8002ab6:	f000 80d2 	beq.w	8002c5e <_printf_i+0x1c6>
 8002aba:	2f58      	cmp	r7, #88	@ 0x58
 8002abc:	f000 80b9 	beq.w	8002c32 <_printf_i+0x19a>
 8002ac0:	f104 0642 	add.w	r6, r4, #66	@ 0x42
 8002ac4:	f884 7042 	strb.w	r7, [r4, #66]	@ 0x42
 8002ac8:	e03a      	b.n	8002b40 <_printf_i+0xa8>
 8002aca:	f1a7 0363 	sub.w	r3, r7, #99	@ 0x63
 8002ace:	2b15      	cmp	r3, #21
 8002ad0:	d8f6      	bhi.n	8002ac0 <_printf_i+0x28>
 8002ad2:	a101      	add	r1, pc, #4	@ (adr r1, 8002ad8 <_printf_i+0x40>)
 8002ad4:	f851 f023 	ldr.w	pc, [r1, r3, lsl #2]
 8002ad8:	08002b31 	.word	0x08002b31
 8002adc:	08002b45 	.word	0x08002b45
 8002ae0:	08002ac1 	.word	0x08002ac1
 8002ae4:	08002ac1 	.word	0x08002ac1
 8002ae8:	08002ac1 	.word	0x08002ac1
 8002aec:	08002ac1 	.word	0x08002ac1
 8002af0:	08002b45 	.word	0x08002b45
 8002af4:	08002ac1 	.word	0x08002ac1
 8002af8:	08002ac1 	.word	0x08002ac1
 8002afc:	08002ac1 	.word	0x08002ac1
 8002b00:	08002ac1 	.word	0x08002ac1
 8002b04:	08002c45 	.word	0x08002c45
 8002b08:	08002b6f 	.word	0x08002b6f
 8002b0c:	08002bff 	.word	0x08002bff
 8002b10:	08002ac1 	.word	0x08002ac1
 8002b14:	08002ac1 	.word	0x08002ac1
 8002b18:	08002c67 	.word	0x08002c67
 8002b1c:	08002ac1 	.word	0x08002ac1
 8002b20:	08002b6f 	.word	0x08002b6f
 8002b24:	08002ac1 	.word	0x08002ac1
 8002b28:	08002ac1 	.word	0x08002ac1
 8002b2c:	08002c07 	.word	0x08002c07
 8002b30:	6833      	ldr	r3, [r6, #0]
 8002b32:	1d1a      	adds	r2, r3, #4
 8002b34:	681b      	ldr	r3, [r3, #0]
 8002b36:	6032      	str	r2, [r6, #0]
 8002b38:	f104 0642 	add.w	r6, r4, #66	@ 0x42
 8002b3c:	f884 3042 	strb.w	r3, [r4, #66]	@ 0x42
 8002b40:	2301      	movs	r3, #1
 8002b42:	e09d      	b.n	8002c80 <_printf_i+0x1e8>
 8002b44:	6833      	ldr	r3, [r6, #0]
 8002b46:	6820      	ldr	r0, [r4, #0]
 8002b48:	1d19      	adds	r1, r3, #4
 8002b4a:	6031      	str	r1, [r6, #0]
 8002b4c:	0606      	lsls	r6, r0, #24
 8002b4e:	d501      	bpl.n	8002b54 <_printf_i+0xbc>
 8002b50:	681d      	ldr	r5, [r3, #0]
 8002b52:	e003      	b.n	8002b5c <_printf_i+0xc4>
 8002b54:	0645      	lsls	r5, r0, #25
 8002b56:	d5fb      	bpl.n	8002b50 <_printf_i+0xb8>
 8002b58:	f9b3 5000 	ldrsh.w	r5, [r3]
 8002b5c:	2d00      	cmp	r5, #0
 8002b5e:	da03      	bge.n	8002b68 <_printf_i+0xd0>
 8002b60:	232d      	movs	r3, #45	@ 0x2d
 8002b62:	426d      	negs	r5, r5
 8002b64:	f884 3043 	strb.w	r3, [r4, #67]	@ 0x43
 8002b68:	4859      	ldr	r0, [pc, #356]	@ (8002cd0 <_printf_i+0x238>)
 8002b6a:	230a      	movs	r3, #10
 8002b6c:	e011      	b.n	8002b92 <_printf_i+0xfa>
 8002b6e:	6821      	ldr	r1, [r4, #0]
 8002b70:	6833      	ldr	r3, [r6, #0]
 8002b72:	0608      	lsls	r0, r1, #24
 8002b74:	f853 5b04 	ldr.w	r5, [r3], #4
 8002b78:	d402      	bmi.n	8002b80 <_printf_i+0xe8>
 8002b7a:	0649      	lsls	r1, r1, #25
 8002b7c:	bf48      	it	mi
 8002b7e:	b2ad      	uxthmi	r5, r5
 8002b80:	2f6f      	cmp	r7, #111	@ 0x6f
 8002b82:	4853      	ldr	r0, [pc, #332]	@ (8002cd0 <_printf_i+0x238>)
 8002b84:	6033      	str	r3, [r6, #0]
 8002b86:	bf14      	ite	ne
 8002b88:	230a      	movne	r3, #10
 8002b8a:	2308      	moveq	r3, #8
 8002b8c:	2100      	movs	r1, #0
 8002b8e:	f884 1043 	strb.w	r1, [r4, #67]	@ 0x43
 8002b92:	6866      	ldr	r6, [r4, #4]
 8002b94:	60a6      	str	r6, [r4, #8]
 8002b96:	2e00      	cmp	r6, #0
 8002b98:	bfa2      	ittt	ge
 8002b9a:	6821      	ldrge	r1, [r4, #0]
 8002b9c:	f021 0104 	bicge.w	r1, r1, #4
 8002ba0:	6021      	strge	r1, [r4, #0]
 8002ba2:	b90d      	cbnz	r5, 8002ba8 <_printf_i+0x110>
 8002ba4:	2e00      	cmp	r6, #0
 8002ba6:	d04b      	beq.n	8002c40 <_printf_i+0x1a8>
 8002ba8:	4616      	mov	r6, r2
 8002baa:	fbb5 f1f3 	udiv	r1, r5, r3
 8002bae:	fb03 5711 	mls	r7, r3, r1, r5
 8002bb2:	5dc7      	ldrb	r7, [r0, r7]
 8002bb4:	f806 7d01 	strb.w	r7, [r6, #-1]!
 8002bb8:	462f      	mov	r7, r5
 8002bba:	42bb      	cmp	r3, r7
 8002bbc:	460d      	mov	r5, r1
 8002bbe:	d9f4      	bls.n	8002baa <_printf_i+0x112>
 8002bc0:	2b08      	cmp	r3, #8
 8002bc2:	d10b      	bne.n	8002bdc <_printf_i+0x144>
 8002bc4:	6823      	ldr	r3, [r4, #0]
 8002bc6:	07df      	lsls	r7, r3, #31
 8002bc8:	d508      	bpl.n	8002bdc <_printf_i+0x144>
 8002bca:	6923      	ldr	r3, [r4, #16]
 8002bcc:	6861      	ldr	r1, [r4, #4]
 8002bce:	4299      	cmp	r1, r3
 8002bd0:	bfde      	ittt	le
 8002bd2:	2330      	movle	r3, #48	@ 0x30
 8002bd4:	f806 3c01 	strble.w	r3, [r6, #-1]
 8002bd8:	f106 36ff 	addle.w	r6, r6, #4294967295
 8002bdc:	1b92      	subs	r2, r2, r6
 8002bde:	6122      	str	r2, [r4, #16]
 8002be0:	f8cd a000 	str.w	sl, [sp]
 8002be4:	464b      	mov	r3, r9
 8002be6:	aa03      	add	r2, sp, #12
 8002be8:	4621      	mov	r1, r4
 8002bea:	4640      	mov	r0, r8
 8002bec:	f7ff fee6 	bl	80029bc <_printf_common>
 8002bf0:	3001      	adds	r0, #1
 8002bf2:	d14a      	bne.n	8002c8a <_printf_i+0x1f2>
 8002bf4:	f04f 30ff 	mov.w	r0, #4294967295
 8002bf8:	b004      	add	sp, #16
 8002bfa:	e8bd 87f0 	ldmia.w	sp!, {r4, r5, r6, r7, r8, r9, sl, pc}
 8002bfe:	6823      	ldr	r3, [r4, #0]
 8002c00:	f043 0320 	orr.w	r3, r3, #32
 8002c04:	6023      	str	r3, [r4, #0]
 8002c06:	4833      	ldr	r0, [pc, #204]	@ (8002cd4 <_printf_i+0x23c>)
 8002c08:	2778      	movs	r7, #120	@ 0x78
 8002c0a:	f884 7045 	strb.w	r7, [r4, #69]	@ 0x45
 8002c0e:	6823      	ldr	r3, [r4, #0]
 8002c10:	6831      	ldr	r1, [r6, #0]
 8002c12:	061f      	lsls	r7, r3, #24
 8002c14:	f851 5b04 	ldr.w	r5, [r1], #4
 8002c18:	d402      	bmi.n	8002c20 <_printf_i+0x188>
 8002c1a:	065f      	lsls	r7, r3, #25
 8002c1c:	bf48      	it	mi
 8002c1e:	b2ad      	uxthmi	r5, r5
 8002c20:	6031      	str	r1, [r6, #0]
 8002c22:	07d9      	lsls	r1, r3, #31
 8002c24:	bf44      	itt	mi
 8002c26:	f043 0320 	orrmi.w	r3, r3, #32
 8002c2a:	6023      	strmi	r3, [r4, #0]
 8002c2c:	b11d      	cbz	r5, 8002c36 <_printf_i+0x19e>
 8002c2e:	2310      	movs	r3, #16
 8002c30:	e7ac      	b.n	8002b8c <_printf_i+0xf4>
 8002c32:	4827      	ldr	r0, [pc, #156]	@ (8002cd0 <_printf_i+0x238>)
 8002c34:	e7e9      	b.n	8002c0a <_printf_i+0x172>
 8002c36:	6823      	ldr	r3, [r4, #0]
 8002c38:	f023 0320 	bic.w	r3, r3, #32
 8002c3c:	6023      	str	r3, [r4, #0]
 8002c3e:	e7f6      	b.n	8002c2e <_printf_i+0x196>
 8002c40:	4616      	mov	r6, r2
 8002c42:	e7bd      	b.n	8002bc0 <_printf_i+0x128>
 8002c44:	6833      	ldr	r3, [r6, #0]
 8002c46:	6825      	ldr	r5, [r4, #0]
 8002c48:	6961      	ldr	r1, [r4, #20]
 8002c4a:	1d18      	adds	r0, r3, #4
 8002c4c:	6030      	str	r0, [r6, #0]
 8002c4e:	062e      	lsls	r6, r5, #24
 8002c50:	681b      	ldr	r3, [r3, #0]
 8002c52:	d501      	bpl.n	8002c58 <_printf_i+0x1c0>
 8002c54:	6019      	str	r1, [r3, #0]
 8002c56:	e002      	b.n	8002c5e <_printf_i+0x1c6>
 8002c58:	0668      	lsls	r0, r5, #25
 8002c5a:	d5fb      	bpl.n	8002c54 <_printf_i+0x1bc>
 8002c5c:	8019      	strh	r1, [r3, #0]
 8002c5e:	2300      	movs	r3, #0
 8002c60:	6123      	str	r3, [r4, #16]
 8002c62:	4616      	mov	r6, r2
 8002c64:	e7bc      	b.n	8002be0 <_printf_i+0x148>
 8002c66:	6833      	ldr	r3, [r6, #0]
 8002c68:	1d1a      	adds	r2, r3, #4
 8002c6a:	6032      	str	r2, [r6, #0]
 8002c6c:	681e      	ldr	r6, [r3, #0]
 8002c6e:	6862      	ldr	r2, [r4, #4]
 8002c70:	2100      	movs	r1, #0
 8002c72:	4630      	mov	r0, r6
 8002c74:	f7fd fad4 	bl	8000220 <memchr>
 8002c78:	b108      	cbz	r0, 8002c7e <_printf_i+0x1e6>
 8002c7a:	1b80      	subs	r0, r0, r6
 8002c7c:	6060      	str	r0, [r4, #4]
 8002c7e:	6863      	ldr	r3, [r4, #4]
 8002c80:	6123      	str	r3, [r4, #16]
 8002c82:	2300      	movs	r3, #0
 8002c84:	f884 3043 	strb.w	r3, [r4, #67]	@ 0x43
 8002c88:	e7aa      	b.n	8002be0 <_printf_i+0x148>
 8002c8a:	6923      	ldr	r3, [r4, #16]
 8002c8c:	4632      	mov	r2, r6
 8002c8e:	4649      	mov	r1, r9
 8002c90:	4640      	mov	r0, r8
 8002c92:	47d0      	blx	sl
 8002c94:	3001      	adds	r0, #1
 8002c96:	d0ad      	beq.n	8002bf4 <_printf_i+0x15c>
 8002c98:	6823      	ldr	r3, [r4, #0]
 8002c9a:	079b      	lsls	r3, r3, #30
 8002c9c:	d413      	bmi.n	8002cc6 <_printf_i+0x22e>
 8002c9e:	68e0      	ldr	r0, [r4, #12]
 8002ca0:	9b03      	ldr	r3, [sp, #12]
 8002ca2:	4298      	cmp	r0, r3
 8002ca4:	bfb8      	it	lt
 8002ca6:	4618      	movlt	r0, r3
 8002ca8:	e7a6      	b.n	8002bf8 <_printf_i+0x160>
 8002caa:	2301      	movs	r3, #1
 8002cac:	4632      	mov	r2, r6
 8002cae:	4649      	mov	r1, r9
 8002cb0:	4640      	mov	r0, r8
 8002cb2:	47d0      	blx	sl
 8002cb4:	3001      	adds	r0, #1
 8002cb6:	d09d      	beq.n	8002bf4 <_printf_i+0x15c>
 8002cb8:	3501      	adds	r5, #1
 8002cba:	68e3      	ldr	r3, [r4, #12]
 8002cbc:	9903      	ldr	r1, [sp, #12]
 8002cbe:	1a5b      	subs	r3, r3, r1
 8002cc0:	42ab      	cmp	r3, r5
 8002cc2:	dcf2      	bgt.n	8002caa <_printf_i+0x212>
 8002cc4:	e7eb      	b.n	8002c9e <_printf_i+0x206>
 8002cc6:	2500      	movs	r5, #0
 8002cc8:	f104 0619 	add.w	r6, r4, #25
 8002ccc:	e7f5      	b.n	8002cba <_printf_i+0x222>
 8002cce:	bf00      	nop
 8002cd0:	08002e03 	.word	0x08002e03
 8002cd4:	08002e14 	.word	0x08002e14

08002cd8 <memmove>:
 8002cd8:	4288      	cmp	r0, r1
 8002cda:	b510      	push	{r4, lr}
 8002cdc:	eb01 0402 	add.w	r4, r1, r2
 8002ce0:	d902      	bls.n	8002ce8 <memmove+0x10>
 8002ce2:	4284      	cmp	r4, r0
 8002ce4:	4623      	mov	r3, r4
 8002ce6:	d807      	bhi.n	8002cf8 <memmove+0x20>
 8002ce8:	1e43      	subs	r3, r0, #1
 8002cea:	42a1      	cmp	r1, r4
 8002cec:	d008      	beq.n	8002d00 <memmove+0x28>
 8002cee:	f811 2b01 	ldrb.w	r2, [r1], #1
 8002cf2:	f803 2f01 	strb.w	r2, [r3, #1]!
 8002cf6:	e7f8      	b.n	8002cea <memmove+0x12>
 8002cf8:	4402      	add	r2, r0
 8002cfa:	4601      	mov	r1, r0
 8002cfc:	428a      	cmp	r2, r1
 8002cfe:	d100      	bne.n	8002d02 <memmove+0x2a>
 8002d00:	bd10      	pop	{r4, pc}
 8002d02:	f813 4d01 	ldrb.w	r4, [r3, #-1]!
 8002d06:	f802 4d01 	strb.w	r4, [r2, #-1]!
 8002d0a:	e7f7      	b.n	8002cfc <memmove+0x24>

08002d0c <_sbrk_r>:
 8002d0c:	b538      	push	{r3, r4, r5, lr}
 8002d0e:	4d06      	ldr	r5, [pc, #24]	@ (8002d28 <_sbrk_r+0x1c>)
 8002d10:	2300      	movs	r3, #0
 8002d12:	4604      	mov	r4, r0
 8002d14:	4608      	mov	r0, r1
 8002d16:	602b      	str	r3, [r5, #0]
 8002d18:	f7fe f8c2 	bl	8000ea0 <_sbrk>
 8002d1c:	1c43      	adds	r3, r0, #1
 8002d1e:	d102      	bne.n	8002d26 <_sbrk_r+0x1a>
 8002d20:	682b      	ldr	r3, [r5, #0]
 8002d22:	b103      	cbz	r3, 8002d26 <_sbrk_r+0x1a>
 8002d24:	6023      	str	r3, [r4, #0]
 8002d26:	bd38      	pop	{r3, r4, r5, pc}
 8002d28:	2000037c 	.word	0x2000037c

08002d2c <memcpy>:
 8002d2c:	440a      	add	r2, r1
 8002d2e:	4291      	cmp	r1, r2
 8002d30:	f100 33ff 	add.w	r3, r0, #4294967295
 8002d34:	d100      	bne.n	8002d38 <memcpy+0xc>
 8002d36:	4770      	bx	lr
 8002d38:	b510      	push	{r4, lr}
 8002d3a:	f811 4b01 	ldrb.w	r4, [r1], #1
 8002d3e:	f803 4f01 	strb.w	r4, [r3, #1]!
 8002d42:	4291      	cmp	r1, r2
 8002d44:	d1f9      	bne.n	8002d3a <memcpy+0xe>
 8002d46:	bd10      	pop	{r4, pc}

08002d48 <_realloc_r>:
 8002d48:	e92d 41f0 	stmdb	sp!, {r4, r5, r6, r7, r8, lr}
 8002d4c:	4680      	mov	r8, r0
 8002d4e:	4615      	mov	r5, r2
 8002d50:	460c      	mov	r4, r1
 8002d52:	b921      	cbnz	r1, 8002d5e <_realloc_r+0x16>
 8002d54:	e8bd 41f0 	ldmia.w	sp!, {r4, r5, r6, r7, r8, lr}
 8002d58:	4611      	mov	r1, r2
 8002d5a:	f7ff bc4b 	b.w	80025f4 <_malloc_r>
 8002d5e:	b92a      	cbnz	r2, 8002d6c <_realloc_r+0x24>
 8002d60:	f7ff fbdc 	bl	800251c <_free_r>
 8002d64:	2400      	movs	r4, #0
 8002d66:	4620      	mov	r0, r4
 8002d68:	e8bd 81f0 	ldmia.w	sp!, {r4, r5, r6, r7, r8, pc}
 8002d6c:	f000 f81a 	bl	8002da4 <_malloc_usable_size_r>
 8002d70:	4285      	cmp	r5, r0
 8002d72:	4606      	mov	r6, r0
 8002d74:	d802      	bhi.n	8002d7c <_realloc_r+0x34>
 8002d76:	ebb5 0f50 	cmp.w	r5, r0, lsr #1
 8002d7a:	d8f4      	bhi.n	8002d66 <_realloc_r+0x1e>
 8002d7c:	4629      	mov	r1, r5
 8002d7e:	4640      	mov	r0, r8
 8002d80:	f7ff fc38 	bl	80025f4 <_malloc_r>
 8002d84:	4607      	mov	r7, r0
 8002d86:	2800      	cmp	r0, #0
 8002d88:	d0ec      	beq.n	8002d64 <_realloc_r+0x1c>
 8002d8a:	42b5      	cmp	r5, r6
 8002d8c:	462a      	mov	r2, r5
 8002d8e:	4621      	mov	r1, r4
 8002d90:	bf28      	it	cs
 8002d92:	4632      	movcs	r2, r6
 8002d94:	f7ff ffca 	bl	8002d2c <memcpy>
 8002d98:	4621      	mov	r1, r4
 8002d9a:	4640      	mov	r0, r8
 8002d9c:	f7ff fbbe 	bl	800251c <_free_r>
 8002da0:	463c      	mov	r4, r7
 8002da2:	e7e0      	b.n	8002d66 <_realloc_r+0x1e>

08002da4 <_malloc_usable_size_r>:
 8002da4:	f851 3c04 	ldr.w	r3, [r1, #-4]
 8002da8:	1f18      	subs	r0, r3, #4
 8002daa:	2b00      	cmp	r3, #0
 8002dac:	bfbc      	itt	lt
 8002dae:	580b      	ldrlt	r3, [r1, r0]
 8002db0:	18c0      	addlt	r0, r0, r3
 8002db2:	4770      	bx	lr

08002db4 <_init>:
 8002db4:	b5f8      	push	{r3, r4, r5, r6, r7, lr}
 8002db6:	bf00      	nop
 8002db8:	bcf8      	pop	{r3, r4, r5, r6, r7}
 8002dba:	bc08      	pop	{r3}
 8002dbc:	469e      	mov	lr, r3
 8002dbe:	4770      	bx	lr

08002dc0 <_fini>:
 8002dc0:	b5f8      	push	{r3, r4, r5, r6, r7, lr}
 8002dc2:	bf00      	nop
 8002dc4:	bcf8      	pop	{r3, r4, r5, r6, r7}
 8002dc6:	bc08      	pop	{r3}
 8002dc8:	469e      	mov	lr, r3
 8002dca:	4770      	bx	lr
